   1              		.syntax unified
   2              		.cpu cortex-m3
   3              		.fpu softvfp
   4              		.eabi_attribute 20, 1
   5              		.eabi_attribute 21, 1
   6              		.eabi_attribute 23, 3
   7              		.eabi_attribute 24, 1
   8              		.eabi_attribute 25, 1
   9              		.eabi_attribute 26, 1
  10              		.eabi_attribute 30, 4
  11              		.eabi_attribute 34, 1
  12              		.eabi_attribute 18, 4
  13              		.thumb
  14              		.file	"misc.c"
  15              		.text
  16              	.Ltext0:
  17              		.cfi_sections	.debug_frame
  18              		.section	.text.NVIC_PriorityGroupConfig,"ax",%progbits
  19              		.align	1
  20              		.global	NVIC_PriorityGroupConfig
  21              		.thumb
  22              		.thumb_func
  24              	NVIC_PriorityGroupConfig:
  25              	.LFB29:
  26              		.file 1 "Libraries/STM32F10x_StdPeriph_Driver/src/misc.c"
   1:Libraries/STM32F10x_StdPeriph_Driver/src/misc.c **** /**
   2:Libraries/STM32F10x_StdPeriph_Driver/src/misc.c ****   ******************************************************************************
   3:Libraries/STM32F10x_StdPeriph_Driver/src/misc.c ****   * @file    misc.c
   4:Libraries/STM32F10x_StdPeriph_Driver/src/misc.c ****   * @author  MCD Application Team
   5:Libraries/STM32F10x_StdPeriph_Driver/src/misc.c ****   * @version V3.3.0
   6:Libraries/STM32F10x_StdPeriph_Driver/src/misc.c ****   * @date    04/16/2010
   7:Libraries/STM32F10x_StdPeriph_Driver/src/misc.c ****   * @brief   This file provides all the miscellaneous firmware functions (add-on
   8:Libraries/STM32F10x_StdPeriph_Driver/src/misc.c ****   *          to CMSIS functions).
   9:Libraries/STM32F10x_StdPeriph_Driver/src/misc.c ****   ******************************************************************************
  10:Libraries/STM32F10x_StdPeriph_Driver/src/misc.c ****   * @copy
  11:Libraries/STM32F10x_StdPeriph_Driver/src/misc.c ****   *
  12:Libraries/STM32F10x_StdPeriph_Driver/src/misc.c ****   * THE PRESENT FIRMWARE WHICH IS FOR GUIDANCE ONLY AIMS AT PROVIDING CUSTOMERS
  13:Libraries/STM32F10x_StdPeriph_Driver/src/misc.c ****   * WITH CODING INFORMATION REGARDING THEIR PRODUCTS IN ORDER FOR THEM TO SAVE
  14:Libraries/STM32F10x_StdPeriph_Driver/src/misc.c ****   * TIME. AS A RESULT, STMICROELECTRONICS SHALL NOT BE HELD LIABLE FOR ANY
  15:Libraries/STM32F10x_StdPeriph_Driver/src/misc.c ****   * DIRECT, INDIRECT OR CONSEQUENTIAL DAMAGES WITH RESPECT TO ANY CLAIMS ARISING
  16:Libraries/STM32F10x_StdPeriph_Driver/src/misc.c ****   * FROM THE CONTENT OF SUCH FIRMWARE AND/OR THE USE MADE BY CUSTOMERS OF THE
  17:Libraries/STM32F10x_StdPeriph_Driver/src/misc.c ****   * CODING INFORMATION CONTAINED HEREIN IN CONNECTION WITH THEIR PRODUCTS.
  18:Libraries/STM32F10x_StdPeriph_Driver/src/misc.c ****   *
  19:Libraries/STM32F10x_StdPeriph_Driver/src/misc.c ****   * <h2><center>&copy; COPYRIGHT 2010 STMicroelectronics</center></h2>
  20:Libraries/STM32F10x_StdPeriph_Driver/src/misc.c ****   */ 
  21:Libraries/STM32F10x_StdPeriph_Driver/src/misc.c **** 
  22:Libraries/STM32F10x_StdPeriph_Driver/src/misc.c **** /* Includes ------------------------------------------------------------------*/
  23:Libraries/STM32F10x_StdPeriph_Driver/src/misc.c **** #include "misc.h"
  24:Libraries/STM32F10x_StdPeriph_Driver/src/misc.c **** 
  25:Libraries/STM32F10x_StdPeriph_Driver/src/misc.c **** /** @addtogroup STM32F10x_StdPeriph_Driver
  26:Libraries/STM32F10x_StdPeriph_Driver/src/misc.c ****   * @{
  27:Libraries/STM32F10x_StdPeriph_Driver/src/misc.c ****   */
  28:Libraries/STM32F10x_StdPeriph_Driver/src/misc.c **** 
  29:Libraries/STM32F10x_StdPeriph_Driver/src/misc.c **** /** @defgroup MISC 
  30:Libraries/STM32F10x_StdPeriph_Driver/src/misc.c ****   * @brief MISC driver modules
  31:Libraries/STM32F10x_StdPeriph_Driver/src/misc.c ****   * @{
  32:Libraries/STM32F10x_StdPeriph_Driver/src/misc.c ****   */
  33:Libraries/STM32F10x_StdPeriph_Driver/src/misc.c **** 
  34:Libraries/STM32F10x_StdPeriph_Driver/src/misc.c **** /** @defgroup MISC_Private_TypesDefinitions
  35:Libraries/STM32F10x_StdPeriph_Driver/src/misc.c ****   * @{
  36:Libraries/STM32F10x_StdPeriph_Driver/src/misc.c ****   */
  37:Libraries/STM32F10x_StdPeriph_Driver/src/misc.c **** 
  38:Libraries/STM32F10x_StdPeriph_Driver/src/misc.c **** /**
  39:Libraries/STM32F10x_StdPeriph_Driver/src/misc.c ****   * @}
  40:Libraries/STM32F10x_StdPeriph_Driver/src/misc.c ****   */ 
  41:Libraries/STM32F10x_StdPeriph_Driver/src/misc.c **** 
  42:Libraries/STM32F10x_StdPeriph_Driver/src/misc.c **** /** @defgroup MISC_Private_Defines
  43:Libraries/STM32F10x_StdPeriph_Driver/src/misc.c ****   * @{
  44:Libraries/STM32F10x_StdPeriph_Driver/src/misc.c ****   */
  45:Libraries/STM32F10x_StdPeriph_Driver/src/misc.c **** 
  46:Libraries/STM32F10x_StdPeriph_Driver/src/misc.c **** #define AIRCR_VECTKEY_MASK    ((uint32_t)0x05FA0000)
  47:Libraries/STM32F10x_StdPeriph_Driver/src/misc.c **** /**
  48:Libraries/STM32F10x_StdPeriph_Driver/src/misc.c ****   * @}
  49:Libraries/STM32F10x_StdPeriph_Driver/src/misc.c ****   */
  50:Libraries/STM32F10x_StdPeriph_Driver/src/misc.c **** 
  51:Libraries/STM32F10x_StdPeriph_Driver/src/misc.c **** /** @defgroup MISC_Private_Macros
  52:Libraries/STM32F10x_StdPeriph_Driver/src/misc.c ****   * @{
  53:Libraries/STM32F10x_StdPeriph_Driver/src/misc.c ****   */
  54:Libraries/STM32F10x_StdPeriph_Driver/src/misc.c **** 
  55:Libraries/STM32F10x_StdPeriph_Driver/src/misc.c **** /**
  56:Libraries/STM32F10x_StdPeriph_Driver/src/misc.c ****   * @}
  57:Libraries/STM32F10x_StdPeriph_Driver/src/misc.c ****   */
  58:Libraries/STM32F10x_StdPeriph_Driver/src/misc.c **** 
  59:Libraries/STM32F10x_StdPeriph_Driver/src/misc.c **** /** @defgroup MISC_Private_Variables
  60:Libraries/STM32F10x_StdPeriph_Driver/src/misc.c ****   * @{
  61:Libraries/STM32F10x_StdPeriph_Driver/src/misc.c ****   */
  62:Libraries/STM32F10x_StdPeriph_Driver/src/misc.c **** 
  63:Libraries/STM32F10x_StdPeriph_Driver/src/misc.c **** /**
  64:Libraries/STM32F10x_StdPeriph_Driver/src/misc.c ****   * @}
  65:Libraries/STM32F10x_StdPeriph_Driver/src/misc.c ****   */
  66:Libraries/STM32F10x_StdPeriph_Driver/src/misc.c **** 
  67:Libraries/STM32F10x_StdPeriph_Driver/src/misc.c **** /** @defgroup MISC_Private_FunctionPrototypes
  68:Libraries/STM32F10x_StdPeriph_Driver/src/misc.c ****   * @{
  69:Libraries/STM32F10x_StdPeriph_Driver/src/misc.c ****   */
  70:Libraries/STM32F10x_StdPeriph_Driver/src/misc.c **** 
  71:Libraries/STM32F10x_StdPeriph_Driver/src/misc.c **** /**
  72:Libraries/STM32F10x_StdPeriph_Driver/src/misc.c ****   * @}
  73:Libraries/STM32F10x_StdPeriph_Driver/src/misc.c ****   */
  74:Libraries/STM32F10x_StdPeriph_Driver/src/misc.c **** 
  75:Libraries/STM32F10x_StdPeriph_Driver/src/misc.c **** /** @defgroup MISC_Private_Functions
  76:Libraries/STM32F10x_StdPeriph_Driver/src/misc.c ****   * @{
  77:Libraries/STM32F10x_StdPeriph_Driver/src/misc.c ****   */
  78:Libraries/STM32F10x_StdPeriph_Driver/src/misc.c **** 
  79:Libraries/STM32F10x_StdPeriph_Driver/src/misc.c **** /**
  80:Libraries/STM32F10x_StdPeriph_Driver/src/misc.c ****   * @brief  Configures the priority grouping: pre-emption priority and subpriority.
  81:Libraries/STM32F10x_StdPeriph_Driver/src/misc.c ****   * @param  NVIC_PriorityGroup: specifies the priority grouping bits length. 
  82:Libraries/STM32F10x_StdPeriph_Driver/src/misc.c ****   *   This parameter can be one of the following values:
  83:Libraries/STM32F10x_StdPeriph_Driver/src/misc.c ****   *     @arg NVIC_PriorityGroup_0: 0 bits for pre-emption priority
  84:Libraries/STM32F10x_StdPeriph_Driver/src/misc.c ****   *                                4 bits for subpriority
  85:Libraries/STM32F10x_StdPeriph_Driver/src/misc.c ****   *     @arg NVIC_PriorityGroup_1: 1 bits for pre-emption priority
  86:Libraries/STM32F10x_StdPeriph_Driver/src/misc.c ****   *                                3 bits for subpriority
  87:Libraries/STM32F10x_StdPeriph_Driver/src/misc.c ****   *     @arg NVIC_PriorityGroup_2: 2 bits for pre-emption priority
  88:Libraries/STM32F10x_StdPeriph_Driver/src/misc.c ****   *                                2 bits for subpriority
  89:Libraries/STM32F10x_StdPeriph_Driver/src/misc.c ****   *     @arg NVIC_PriorityGroup_3: 3 bits for pre-emption priority
  90:Libraries/STM32F10x_StdPeriph_Driver/src/misc.c ****   *                                1 bits for subpriority
  91:Libraries/STM32F10x_StdPeriph_Driver/src/misc.c ****   *     @arg NVIC_PriorityGroup_4: 4 bits for pre-emption priority
  92:Libraries/STM32F10x_StdPeriph_Driver/src/misc.c ****   *                                0 bits for subpriority
  93:Libraries/STM32F10x_StdPeriph_Driver/src/misc.c ****   * @retval None
  94:Libraries/STM32F10x_StdPeriph_Driver/src/misc.c ****   */
  95:Libraries/STM32F10x_StdPeriph_Driver/src/misc.c **** void NVIC_PriorityGroupConfig(uint32_t NVIC_PriorityGroup)
  96:Libraries/STM32F10x_StdPeriph_Driver/src/misc.c **** {
  27              		.loc 1 96 0
  28              		.cfi_startproc
  29              		@ args = 0, pretend = 0, frame = 0
  30              		@ frame_needed = 0, uses_anonymous_args = 0
  31              		@ link register save eliminated.
  32              	.LVL0:
  97:Libraries/STM32F10x_StdPeriph_Driver/src/misc.c ****   /* Check the parameters */
  98:Libraries/STM32F10x_StdPeriph_Driver/src/misc.c ****   assert_param(IS_NVIC_PRIORITY_GROUP(NVIC_PriorityGroup));
  99:Libraries/STM32F10x_StdPeriph_Driver/src/misc.c ****   
 100:Libraries/STM32F10x_StdPeriph_Driver/src/misc.c ****   /* Set the PRIGROUP[10:8] bits according to NVIC_PriorityGroup value */
 101:Libraries/STM32F10x_StdPeriph_Driver/src/misc.c ****   SCB->AIRCR = AIRCR_VECTKEY_MASK | NVIC_PriorityGroup;
  33              		.loc 1 101 0
  34 0000 40F0BF60 		orr	r0, r0, #100139008
  35              	.LVL1:
  36 0004 024B     		ldr	r3, .L2
  37 0006 40F40030 		orr	r0, r0, #131072
  38 000a D860     		str	r0, [r3, #12]
  39 000c 7047     		bx	lr
  40              	.L3:
  41 000e 00BF     		.align	2
  42              	.L2:
  43 0010 00ED00E0 		.word	-536810240
  44              		.cfi_endproc
  45              	.LFE29:
  47              		.section	.text.NVIC_Init,"ax",%progbits
  48              		.align	1
  49              		.global	NVIC_Init
  50              		.thumb
  51              		.thumb_func
  53              	NVIC_Init:
  54              	.LFB30:
 102:Libraries/STM32F10x_StdPeriph_Driver/src/misc.c **** }
 103:Libraries/STM32F10x_StdPeriph_Driver/src/misc.c **** 
 104:Libraries/STM32F10x_StdPeriph_Driver/src/misc.c **** /**
 105:Libraries/STM32F10x_StdPeriph_Driver/src/misc.c ****   * @brief  Initializes the NVIC peripheral according to the specified
 106:Libraries/STM32F10x_StdPeriph_Driver/src/misc.c ****   *   parameters in the NVIC_InitStruct.
 107:Libraries/STM32F10x_StdPeriph_Driver/src/misc.c ****   * @param  NVIC_InitStruct: pointer to a NVIC_InitTypeDef structure that contains
 108:Libraries/STM32F10x_StdPeriph_Driver/src/misc.c ****   *   the configuration information for the specified NVIC peripheral.
 109:Libraries/STM32F10x_StdPeriph_Driver/src/misc.c ****   * @retval None
 110:Libraries/STM32F10x_StdPeriph_Driver/src/misc.c ****   */
 111:Libraries/STM32F10x_StdPeriph_Driver/src/misc.c **** void NVIC_Init(NVIC_InitTypeDef* NVIC_InitStruct)
 112:Libraries/STM32F10x_StdPeriph_Driver/src/misc.c **** {
  55              		.loc 1 112 0
  56              		.cfi_startproc
  57              		@ args = 0, pretend = 0, frame = 0
  58              		@ frame_needed = 0, uses_anonymous_args = 0
  59              	.LVL2:
 113:Libraries/STM32F10x_StdPeriph_Driver/src/misc.c ****   uint32_t tmppriority = 0x00, tmppre = 0x00, tmpsub = 0x0F;
 114:Libraries/STM32F10x_StdPeriph_Driver/src/misc.c ****   
 115:Libraries/STM32F10x_StdPeriph_Driver/src/misc.c ****   /* Check the parameters */
 116:Libraries/STM32F10x_StdPeriph_Driver/src/misc.c ****   assert_param(IS_FUNCTIONAL_STATE(NVIC_InitStruct->NVIC_IRQChannelCmd));
 117:Libraries/STM32F10x_StdPeriph_Driver/src/misc.c ****   assert_param(IS_NVIC_PREEMPTION_PRIORITY(NVIC_InitStruct->NVIC_IRQChannelPreemptionPriority));  
 118:Libraries/STM32F10x_StdPeriph_Driver/src/misc.c ****   assert_param(IS_NVIC_SUB_PRIORITY(NVIC_InitStruct->NVIC_IRQChannelSubPriority));
 119:Libraries/STM32F10x_StdPeriph_Driver/src/misc.c ****     
 120:Libraries/STM32F10x_StdPeriph_Driver/src/misc.c ****   if (NVIC_InitStruct->NVIC_IRQChannelCmd != DISABLE)
  60              		.loc 1 120 0
  61 0000 C278     		ldrb	r2, [r0, #3]	@ zero_extendqisi2
 112:Libraries/STM32F10x_StdPeriph_Driver/src/misc.c ****   uint32_t tmppriority = 0x00, tmppre = 0x00, tmpsub = 0x0F;
  62              		.loc 1 112 0
  63 0002 10B5     		push	{r4, lr}
  64              		.cfi_def_cfa_offset 8
  65              		.cfi_offset 4, -8
  66              		.cfi_offset 14, -4
  67 0004 0378     		ldrb	r3, [r0]	@ zero_extendqisi2
  68              		.loc 1 120 0
  69 0006 0AB3     		cbz	r2, .L5
 121:Libraries/STM32F10x_StdPeriph_Driver/src/misc.c ****   {
 122:Libraries/STM32F10x_StdPeriph_Driver/src/misc.c ****     /* Compute the Corresponding IRQ Priority --------------------------------*/    
 123:Libraries/STM32F10x_StdPeriph_Driver/src/misc.c ****     tmppriority = (0x700 - ((SCB->AIRCR) & (uint32_t)0x700))>> 0x08;
  70              		.loc 1 123 0
  71 0008 164A     		ldr	r2, .L8
 124:Libraries/STM32F10x_StdPeriph_Driver/src/misc.c ****     tmppre = (0x4 - tmppriority);
 125:Libraries/STM32F10x_StdPeriph_Driver/src/misc.c ****     tmpsub = tmpsub >> tmppriority;
 126:Libraries/STM32F10x_StdPeriph_Driver/src/misc.c **** 
 127:Libraries/STM32F10x_StdPeriph_Driver/src/misc.c ****     tmppriority = (uint32_t)NVIC_InitStruct->NVIC_IRQChannelPreemptionPriority << tmppre;
 128:Libraries/STM32F10x_StdPeriph_Driver/src/misc.c ****     tmppriority |=  NVIC_InitStruct->NVIC_IRQChannelSubPriority & tmpsub;
 129:Libraries/STM32F10x_StdPeriph_Driver/src/misc.c ****     tmppriority = tmppriority << 0x04;
 130:Libraries/STM32F10x_StdPeriph_Driver/src/misc.c ****         
 131:Libraries/STM32F10x_StdPeriph_Driver/src/misc.c ****     NVIC->IP[NVIC_InitStruct->NVIC_IRQChannel] = tmppriority;
  72              		.loc 1 131 0
  73 000a 03F16043 		add	r3, r3, #-536870912
 123:Libraries/STM32F10x_StdPeriph_Driver/src/misc.c ****     tmppre = (0x4 - tmppriority);
  74              		.loc 1 123 0
  75 000e D468     		ldr	r4, [r2, #12]
 127:Libraries/STM32F10x_StdPeriph_Driver/src/misc.c ****     tmppriority |=  NVIC_InitStruct->NVIC_IRQChannelSubPriority & tmpsub;
  76              		.loc 1 127 0
  77 0010 4278     		ldrb	r2, [r0, #1]	@ zero_extendqisi2
 123:Libraries/STM32F10x_StdPeriph_Driver/src/misc.c ****     tmppre = (0x4 - tmppriority);
  78              		.loc 1 123 0
  79 0012 E443     		mvns	r4, r4
  80 0014 C4F30224 		ubfx	r4, r4, #8, #3
  81              	.LVL3:
 124:Libraries/STM32F10x_StdPeriph_Driver/src/misc.c ****     tmppre = (0x4 - tmppriority);
  82              		.loc 1 124 0
  83 0018 C4F10401 		rsb	r1, r4, #4
  84              	.LVL4:
 127:Libraries/STM32F10x_StdPeriph_Driver/src/misc.c ****     tmppriority |=  NVIC_InitStruct->NVIC_IRQChannelSubPriority & tmpsub;
  85              		.loc 1 127 0
  86 001c 02FA01F1 		lsl	r1, r2, r1
  87              	.LVL5:
 125:Libraries/STM32F10x_StdPeriph_Driver/src/misc.c **** 
  88              		.loc 1 125 0
  89 0020 0F22     		movs	r2, #15
  90 0022 E240     		lsrs	r2, r2, r4
  91              	.LVL6:
 128:Libraries/STM32F10x_StdPeriph_Driver/src/misc.c ****     tmppriority = tmppriority << 0x04;
  92              		.loc 1 128 0
  93 0024 8478     		ldrb	r4, [r0, #2]	@ zero_extendqisi2
  94              	.LVL7:
  95              		.loc 1 131 0
  96 0026 03F56143 		add	r3, r3, #57600
 128:Libraries/STM32F10x_StdPeriph_Driver/src/misc.c ****     tmppriority = tmppriority << 0x04;
  97              		.loc 1 128 0
  98 002a 2240     		ands	r2, r2, r4
  99              	.LVL8:
 100 002c 0A43     		orrs	r2, r2, r1
 101              	.LVL9:
 129:Libraries/STM32F10x_StdPeriph_Driver/src/misc.c ****         
 102              		.loc 1 129 0
 103 002e 1201     		lsls	r2, r2, #4
 104              	.LVL10:
 105              		.loc 1 131 0
 106 0030 D2B2     		uxtb	r2, r2
 107              	.LVL11:
 108 0032 83F80023 		strb	r2, [r3, #768]
 132:Libraries/STM32F10x_StdPeriph_Driver/src/misc.c ****     
 133:Libraries/STM32F10x_StdPeriph_Driver/src/misc.c ****     /* Enable the Selected IRQ Channels --------------------------------------*/
 134:Libraries/STM32F10x_StdPeriph_Driver/src/misc.c ****     NVIC->ISER[NVIC_InitStruct->NVIC_IRQChannel >> 0x05] =
 109              		.loc 1 134 0
 110 0036 0378     		ldrb	r3, [r0]	@ zero_extendqisi2
 135:Libraries/STM32F10x_StdPeriph_Driver/src/misc.c ****       (uint32_t)0x01 << (NVIC_InitStruct->NVIC_IRQChannel & (uint8_t)0x1F);
 111              		.loc 1 135 0
 112 0038 0122     		movs	r2, #1
 134:Libraries/STM32F10x_StdPeriph_Driver/src/misc.c ****       (uint32_t)0x01 << (NVIC_InitStruct->NVIC_IRQChannel & (uint8_t)0x1F);
 113              		.loc 1 134 0
 114 003a 5909     		lsrs	r1, r3, #5
 115              		.loc 1 135 0
 116 003c 03F01F03 		and	r3, r3, #31
 117 0040 02FA03F3 		lsl	r3, r2, r3
 134:Libraries/STM32F10x_StdPeriph_Driver/src/misc.c ****       (uint32_t)0x01 << (NVIC_InitStruct->NVIC_IRQChannel & (uint8_t)0x1F);
 118              		.loc 1 134 0
 119 0044 084A     		ldr	r2, .L8+4
 120 0046 42F82130 		str	r3, [r2, r1, lsl #2]
 121 004a 10BD     		pop	{r4, pc}
 122              	.LVL12:
 123              	.L5:
 136:Libraries/STM32F10x_StdPeriph_Driver/src/misc.c ****   }
 137:Libraries/STM32F10x_StdPeriph_Driver/src/misc.c ****   else
 138:Libraries/STM32F10x_StdPeriph_Driver/src/misc.c ****   {
 139:Libraries/STM32F10x_StdPeriph_Driver/src/misc.c ****     /* Disable the Selected IRQ Channels -------------------------------------*/
 140:Libraries/STM32F10x_StdPeriph_Driver/src/misc.c ****     NVIC->ICER[NVIC_InitStruct->NVIC_IRQChannel >> 0x05] =
 124              		.loc 1 140 0
 125 004c 5A09     		lsrs	r2, r3, #5
 141:Libraries/STM32F10x_StdPeriph_Driver/src/misc.c ****       (uint32_t)0x01 << (NVIC_InitStruct->NVIC_IRQChannel & (uint8_t)0x1F);
 126              		.loc 1 141 0
 127 004e 0121     		movs	r1, #1
 128 0050 03F01F03 		and	r3, r3, #31
 129 0054 9940     		lsls	r1, r1, r3
 140:Libraries/STM32F10x_StdPeriph_Driver/src/misc.c ****       (uint32_t)0x01 << (NVIC_InitStruct->NVIC_IRQChannel & (uint8_t)0x1F);
 130              		.loc 1 140 0
 131 0056 02F12003 		add	r3, r2, #32
 132 005a 034A     		ldr	r2, .L8+4
 133 005c 42F82310 		str	r1, [r2, r3, lsl #2]
 134 0060 10BD     		pop	{r4, pc}
 135              	.L9:
 136 0062 00BF     		.align	2
 137              	.L8:
 138 0064 00ED00E0 		.word	-536810240
 139 0068 00E100E0 		.word	-536813312
 140              		.cfi_endproc
 141              	.LFE30:
 143              		.section	.text.NVIC_SetVectorTable,"ax",%progbits
 144              		.align	1
 145              		.global	NVIC_SetVectorTable
 146              		.thumb
 147              		.thumb_func
 149              	NVIC_SetVectorTable:
 150              	.LFB31:
 142:Libraries/STM32F10x_StdPeriph_Driver/src/misc.c ****   }
 143:Libraries/STM32F10x_StdPeriph_Driver/src/misc.c **** }
 144:Libraries/STM32F10x_StdPeriph_Driver/src/misc.c **** 
 145:Libraries/STM32F10x_StdPeriph_Driver/src/misc.c **** /**
 146:Libraries/STM32F10x_StdPeriph_Driver/src/misc.c ****   * @brief  Sets the vector table location and Offset.
 147:Libraries/STM32F10x_StdPeriph_Driver/src/misc.c ****   * @param  NVIC_VectTab: specifies if the vector table is in RAM or FLASH memory.
 148:Libraries/STM32F10x_StdPeriph_Driver/src/misc.c ****   *   This parameter can be one of the following values:
 149:Libraries/STM32F10x_StdPeriph_Driver/src/misc.c ****   *     @arg NVIC_VectTab_RAM
 150:Libraries/STM32F10x_StdPeriph_Driver/src/misc.c ****   *     @arg NVIC_VectTab_FLASH
 151:Libraries/STM32F10x_StdPeriph_Driver/src/misc.c ****   * @param  Offset: Vector Table base offset field. This value must be a multiple of 0x100.
 152:Libraries/STM32F10x_StdPeriph_Driver/src/misc.c ****   * @retval None
 153:Libraries/STM32F10x_StdPeriph_Driver/src/misc.c ****   */
 154:Libraries/STM32F10x_StdPeriph_Driver/src/misc.c **** void NVIC_SetVectorTable(uint32_t NVIC_VectTab, uint32_t Offset)
 155:Libraries/STM32F10x_StdPeriph_Driver/src/misc.c **** { 
 151              		.loc 1 155 0
 152              		.cfi_startproc
 153              		@ args = 0, pretend = 0, frame = 0
 154              		@ frame_needed = 0, uses_anonymous_args = 0
 155              		@ link register save eliminated.
 156              	.LVL13:
 156:Libraries/STM32F10x_StdPeriph_Driver/src/misc.c ****   /* Check the parameters */
 157:Libraries/STM32F10x_StdPeriph_Driver/src/misc.c ****   assert_param(IS_NVIC_VECTTAB(NVIC_VectTab));
 158:Libraries/STM32F10x_StdPeriph_Driver/src/misc.c ****   assert_param(IS_NVIC_OFFSET(Offset));  
 159:Libraries/STM32F10x_StdPeriph_Driver/src/misc.c ****    
 160:Libraries/STM32F10x_StdPeriph_Driver/src/misc.c ****   SCB->VTOR = NVIC_VectTab | (Offset & (uint32_t)0x1FFFFF80);
 157              		.loc 1 160 0
 158 0000 21F06041 		bic	r1, r1, #-536870912
 159              	.LVL14:
 160 0004 21F07F01 		bic	r1, r1, #127
 161 0008 014B     		ldr	r3, .L11
 162 000a 0843     		orrs	r0, r0, r1
 163              	.LVL15:
 164 000c 9860     		str	r0, [r3, #8]
 165 000e 7047     		bx	lr
 166              	.L12:
 167              		.align	2
 168              	.L11:
 169 0010 00ED00E0 		.word	-536810240
 170              		.cfi_endproc
 171              	.LFE31:
 173              		.section	.text.NVIC_SystemLPConfig,"ax",%progbits
 174              		.align	1
 175              		.global	NVIC_SystemLPConfig
 176              		.thumb
 177              		.thumb_func
 179              	NVIC_SystemLPConfig:
 180              	.LFB32:
 161:Libraries/STM32F10x_StdPeriph_Driver/src/misc.c **** }
 162:Libraries/STM32F10x_StdPeriph_Driver/src/misc.c **** 
 163:Libraries/STM32F10x_StdPeriph_Driver/src/misc.c **** /**
 164:Libraries/STM32F10x_StdPeriph_Driver/src/misc.c ****   * @brief  Selects the condition for the system to enter low power mode.
 165:Libraries/STM32F10x_StdPeriph_Driver/src/misc.c ****   * @param  LowPowerMode: Specifies the new mode for the system to enter low power mode.
 166:Libraries/STM32F10x_StdPeriph_Driver/src/misc.c ****   *   This parameter can be one of the following values:
 167:Libraries/STM32F10x_StdPeriph_Driver/src/misc.c ****   *     @arg NVIC_LP_SEVONPEND
 168:Libraries/STM32F10x_StdPeriph_Driver/src/misc.c ****   *     @arg NVIC_LP_SLEEPDEEP
 169:Libraries/STM32F10x_StdPeriph_Driver/src/misc.c ****   *     @arg NVIC_LP_SLEEPONEXIT
 170:Libraries/STM32F10x_StdPeriph_Driver/src/misc.c ****   * @param  NewState: new state of LP condition. This parameter can be: ENABLE or DISABLE.
 171:Libraries/STM32F10x_StdPeriph_Driver/src/misc.c ****   * @retval None
 172:Libraries/STM32F10x_StdPeriph_Driver/src/misc.c ****   */
 173:Libraries/STM32F10x_StdPeriph_Driver/src/misc.c **** void NVIC_SystemLPConfig(uint8_t LowPowerMode, FunctionalState NewState)
 174:Libraries/STM32F10x_StdPeriph_Driver/src/misc.c **** {
 181              		.loc 1 174 0
 182              		.cfi_startproc
 183              		@ args = 0, pretend = 0, frame = 0
 184              		@ frame_needed = 0, uses_anonymous_args = 0
 185              		@ link register save eliminated.
 186              	.LVL16:
 187 0000 044B     		ldr	r3, .L17
 175:Libraries/STM32F10x_StdPeriph_Driver/src/misc.c ****   /* Check the parameters */
 176:Libraries/STM32F10x_StdPeriph_Driver/src/misc.c ****   assert_param(IS_NVIC_LP(LowPowerMode));
 177:Libraries/STM32F10x_StdPeriph_Driver/src/misc.c ****   assert_param(IS_FUNCTIONAL_STATE(NewState));  
 178:Libraries/STM32F10x_StdPeriph_Driver/src/misc.c ****   
 179:Libraries/STM32F10x_StdPeriph_Driver/src/misc.c ****   if (NewState != DISABLE)
 180:Libraries/STM32F10x_StdPeriph_Driver/src/misc.c ****   {
 181:Libraries/STM32F10x_StdPeriph_Driver/src/misc.c ****     SCB->SCR |= LowPowerMode;
 188              		.loc 1 181 0
 189 0002 1A69     		ldr	r2, [r3, #16]
 179:Libraries/STM32F10x_StdPeriph_Driver/src/misc.c ****   {
 190              		.loc 1 179 0
 191 0004 09B1     		cbz	r1, .L14
 192              		.loc 1 181 0
 193 0006 1043     		orrs	r0, r0, r2
 194              	.LVL17:
 195 0008 01E0     		b	.L16
 196              	.LVL18:
 197              	.L14:
 182:Libraries/STM32F10x_StdPeriph_Driver/src/misc.c ****   }
 183:Libraries/STM32F10x_StdPeriph_Driver/src/misc.c ****   else
 184:Libraries/STM32F10x_StdPeriph_Driver/src/misc.c ****   {
 185:Libraries/STM32F10x_StdPeriph_Driver/src/misc.c ****     SCB->SCR &= (uint32_t)(~(uint32_t)LowPowerMode);
 198              		.loc 1 185 0
 199 000a 22EA0000 		bic	r0, r2, r0
 200              	.LVL19:
 201              	.L16:
 202 000e 1861     		str	r0, [r3, #16]
 203 0010 7047     		bx	lr
 204              	.L18:
 205 0012 00BF     		.align	2
 206              	.L17:
 207 0014 00ED00E0 		.word	-536810240
 208              		.cfi_endproc
 209              	.LFE32:
 211              		.section	.text.SysTick_CLKSourceConfig,"ax",%progbits
 212              		.align	1
 213              		.global	SysTick_CLKSourceConfig
 214              		.thumb
 215              		.thumb_func
 217              	SysTick_CLKSourceConfig:
 218              	.LFB33:
 186:Libraries/STM32F10x_StdPeriph_Driver/src/misc.c ****   }
 187:Libraries/STM32F10x_StdPeriph_Driver/src/misc.c **** }
 188:Libraries/STM32F10x_StdPeriph_Driver/src/misc.c **** 
 189:Libraries/STM32F10x_StdPeriph_Driver/src/misc.c **** /**
 190:Libraries/STM32F10x_StdPeriph_Driver/src/misc.c ****   * @brief  Configures the SysTick clock source.
 191:Libraries/STM32F10x_StdPeriph_Driver/src/misc.c ****   * @param  SysTick_CLKSource: specifies the SysTick clock source.
 192:Libraries/STM32F10x_StdPeriph_Driver/src/misc.c ****   *   This parameter can be one of the following values:
 193:Libraries/STM32F10x_StdPeriph_Driver/src/misc.c ****   *     @arg SysTick_CLKSource_HCLK_Div8: AHB clock divided by 8 selected as SysTick clock source.
 194:Libraries/STM32F10x_StdPeriph_Driver/src/misc.c ****   *     @arg SysTick_CLKSource_HCLK: AHB clock selected as SysTick clock source.
 195:Libraries/STM32F10x_StdPeriph_Driver/src/misc.c ****   * @retval None
 196:Libraries/STM32F10x_StdPeriph_Driver/src/misc.c ****   */
 197:Libraries/STM32F10x_StdPeriph_Driver/src/misc.c **** void SysTick_CLKSourceConfig(uint32_t SysTick_CLKSource)
 198:Libraries/STM32F10x_StdPeriph_Driver/src/misc.c **** {
 219              		.loc 1 198 0
 220              		.cfi_startproc
 221              		@ args = 0, pretend = 0, frame = 0
 222              		@ frame_needed = 0, uses_anonymous_args = 0
 223              		@ link register save eliminated.
 224              	.LVL20:
 225 0000 044B     		ldr	r3, .L23
 199:Libraries/STM32F10x_StdPeriph_Driver/src/misc.c ****   /* Check the parameters */
 200:Libraries/STM32F10x_StdPeriph_Driver/src/misc.c ****   assert_param(IS_SYSTICK_CLK_SOURCE(SysTick_CLKSource));
 201:Libraries/STM32F10x_StdPeriph_Driver/src/misc.c ****   if (SysTick_CLKSource == SysTick_CLKSource_HCLK)
 226              		.loc 1 201 0
 227 0002 0428     		cmp	r0, #4
 202:Libraries/STM32F10x_StdPeriph_Driver/src/misc.c ****   {
 203:Libraries/STM32F10x_StdPeriph_Driver/src/misc.c ****     SysTick->CTRL |= SysTick_CLKSource_HCLK;
 228              		.loc 1 203 0
 229 0004 1A68     		ldr	r2, [r3]
 230 0006 0CBF     		ite	eq
 231 0008 42F00402 		orreq	r2, r2, #4
 204:Libraries/STM32F10x_StdPeriph_Driver/src/misc.c ****   }
 205:Libraries/STM32F10x_StdPeriph_Driver/src/misc.c ****   else
 206:Libraries/STM32F10x_StdPeriph_Driver/src/misc.c ****   {
 207:Libraries/STM32F10x_StdPeriph_Driver/src/misc.c ****     SysTick->CTRL &= SysTick_CLKSource_HCLK_Div8;
 232              		.loc 1 207 0
 233 000c 22F00402 		bicne	r2, r2, #4
 234 0010 1A60     		str	r2, [r3]
 235 0012 7047     		bx	lr
 236              	.L24:
 237              		.align	2
 238              	.L23:
 239 0014 10E000E0 		.word	-536813552
 240              		.cfi_endproc
 241              	.LFE33:
 243              		.text
 244              	.Letext0:
 245              		.file 2 "/usr/include/newlib/machine/_default_types.h"
 246              		.file 3 "/usr/include/newlib/stdint.h"
 247              		.file 4 "./Libraries/CMSIS/CM3/CoreSupport/core_cm3.h"
 248              		.file 5 "./Libraries/CMSIS/CM3/DeviceSupport/ST/STM32F10x/stm32f10x.h"
 249              		.file 6 "./Libraries/STM32F10x_StdPeriph_Driver/inc/misc.h"