   1              		.syntax unified
   2              		.cpu cortex-m3
   3              		.fpu softvfp
   4              		.eabi_attribute 20, 1
   5              		.eabi_attribute 21, 1
   6              		.eabi_attribute 23, 3
   7              		.eabi_attribute 24, 1
   8              		.eabi_attribute 25, 1
   9              		.eabi_attribute 26, 1
  10              		.eabi_attribute 30, 4
  11              		.eabi_attribute 34, 1
  12              		.eabi_attribute 18, 4
  13              		.thumb
  14              		.file	"stm32f10x_rcc.c"
  15              		.text
  16              	.Ltext0:
  17              		.cfi_sections	.debug_frame
  18              		.section	.text.RCC_DeInit,"ax",%progbits
  19              		.align	1
  20              		.global	RCC_DeInit
  21              		.thumb
  22              		.thumb_func
  24              	RCC_DeInit:
  25              	.LFB29:
  26              		.file 1 "Libraries/STM32F10x_StdPeriph_Driver/src/stm32f10x_rcc.c"
   1:Libraries/STM32F10x_StdPeriph_Driver/src/stm32f10x_rcc.c **** /**
   2:Libraries/STM32F10x_StdPeriph_Driver/src/stm32f10x_rcc.c ****   ******************************************************************************
   3:Libraries/STM32F10x_StdPeriph_Driver/src/stm32f10x_rcc.c ****   * @file    stm32f10x_rcc.c
   4:Libraries/STM32F10x_StdPeriph_Driver/src/stm32f10x_rcc.c ****   * @author  MCD Application Team
   5:Libraries/STM32F10x_StdPeriph_Driver/src/stm32f10x_rcc.c ****   * @version V3.3.0
   6:Libraries/STM32F10x_StdPeriph_Driver/src/stm32f10x_rcc.c ****   * @date    04/16/2010
   7:Libraries/STM32F10x_StdPeriph_Driver/src/stm32f10x_rcc.c ****   * @brief   This file provides all the RCC firmware functions.
   8:Libraries/STM32F10x_StdPeriph_Driver/src/stm32f10x_rcc.c ****   ******************************************************************************
   9:Libraries/STM32F10x_StdPeriph_Driver/src/stm32f10x_rcc.c ****   * @copy
  10:Libraries/STM32F10x_StdPeriph_Driver/src/stm32f10x_rcc.c ****   *
  11:Libraries/STM32F10x_StdPeriph_Driver/src/stm32f10x_rcc.c ****   * THE PRESENT FIRMWARE WHICH IS FOR GUIDANCE ONLY AIMS AT PROVIDING CUSTOMERS
  12:Libraries/STM32F10x_StdPeriph_Driver/src/stm32f10x_rcc.c ****   * WITH CODING INFORMATION REGARDING THEIR PRODUCTS IN ORDER FOR THEM TO SAVE
  13:Libraries/STM32F10x_StdPeriph_Driver/src/stm32f10x_rcc.c ****   * TIME. AS A RESULT, STMICROELECTRONICS SHALL NOT BE HELD LIABLE FOR ANY
  14:Libraries/STM32F10x_StdPeriph_Driver/src/stm32f10x_rcc.c ****   * DIRECT, INDIRECT OR CONSEQUENTIAL DAMAGES WITH RESPECT TO ANY CLAIMS ARISING
  15:Libraries/STM32F10x_StdPeriph_Driver/src/stm32f10x_rcc.c ****   * FROM THE CONTENT OF SUCH FIRMWARE AND/OR THE USE MADE BY CUSTOMERS OF THE
  16:Libraries/STM32F10x_StdPeriph_Driver/src/stm32f10x_rcc.c ****   * CODING INFORMATION CONTAINED HEREIN IN CONNECTION WITH THEIR PRODUCTS.
  17:Libraries/STM32F10x_StdPeriph_Driver/src/stm32f10x_rcc.c ****   *
  18:Libraries/STM32F10x_StdPeriph_Driver/src/stm32f10x_rcc.c ****   * <h2><center>&copy; COPYRIGHT 2010 STMicroelectronics</center></h2>
  19:Libraries/STM32F10x_StdPeriph_Driver/src/stm32f10x_rcc.c ****   */ 
  20:Libraries/STM32F10x_StdPeriph_Driver/src/stm32f10x_rcc.c **** 
  21:Libraries/STM32F10x_StdPeriph_Driver/src/stm32f10x_rcc.c **** /* Includes ------------------------------------------------------------------*/
  22:Libraries/STM32F10x_StdPeriph_Driver/src/stm32f10x_rcc.c **** #include "stm32f10x_rcc.h"
  23:Libraries/STM32F10x_StdPeriph_Driver/src/stm32f10x_rcc.c **** 
  24:Libraries/STM32F10x_StdPeriph_Driver/src/stm32f10x_rcc.c **** /** @addtogroup STM32F10x_StdPeriph_Driver
  25:Libraries/STM32F10x_StdPeriph_Driver/src/stm32f10x_rcc.c ****   * @{
  26:Libraries/STM32F10x_StdPeriph_Driver/src/stm32f10x_rcc.c ****   */
  27:Libraries/STM32F10x_StdPeriph_Driver/src/stm32f10x_rcc.c **** 
  28:Libraries/STM32F10x_StdPeriph_Driver/src/stm32f10x_rcc.c **** /** @defgroup RCC 
  29:Libraries/STM32F10x_StdPeriph_Driver/src/stm32f10x_rcc.c ****   * @brief RCC driver modules
  30:Libraries/STM32F10x_StdPeriph_Driver/src/stm32f10x_rcc.c ****   * @{
  31:Libraries/STM32F10x_StdPeriph_Driver/src/stm32f10x_rcc.c ****   */ 
  32:Libraries/STM32F10x_StdPeriph_Driver/src/stm32f10x_rcc.c **** 
  33:Libraries/STM32F10x_StdPeriph_Driver/src/stm32f10x_rcc.c **** /** @defgroup RCC_Private_TypesDefinitions
  34:Libraries/STM32F10x_StdPeriph_Driver/src/stm32f10x_rcc.c ****   * @{
  35:Libraries/STM32F10x_StdPeriph_Driver/src/stm32f10x_rcc.c ****   */
  36:Libraries/STM32F10x_StdPeriph_Driver/src/stm32f10x_rcc.c **** 
  37:Libraries/STM32F10x_StdPeriph_Driver/src/stm32f10x_rcc.c **** /**
  38:Libraries/STM32F10x_StdPeriph_Driver/src/stm32f10x_rcc.c ****   * @}
  39:Libraries/STM32F10x_StdPeriph_Driver/src/stm32f10x_rcc.c ****   */
  40:Libraries/STM32F10x_StdPeriph_Driver/src/stm32f10x_rcc.c **** 
  41:Libraries/STM32F10x_StdPeriph_Driver/src/stm32f10x_rcc.c **** /** @defgroup RCC_Private_Defines
  42:Libraries/STM32F10x_StdPeriph_Driver/src/stm32f10x_rcc.c ****   * @{
  43:Libraries/STM32F10x_StdPeriph_Driver/src/stm32f10x_rcc.c ****   */
  44:Libraries/STM32F10x_StdPeriph_Driver/src/stm32f10x_rcc.c **** 
  45:Libraries/STM32F10x_StdPeriph_Driver/src/stm32f10x_rcc.c **** /* ------------ RCC registers bit address in the alias region ----------- */
  46:Libraries/STM32F10x_StdPeriph_Driver/src/stm32f10x_rcc.c **** #define RCC_OFFSET                (RCC_BASE - PERIPH_BASE)
  47:Libraries/STM32F10x_StdPeriph_Driver/src/stm32f10x_rcc.c **** 
  48:Libraries/STM32F10x_StdPeriph_Driver/src/stm32f10x_rcc.c **** /* --- CR Register ---*/
  49:Libraries/STM32F10x_StdPeriph_Driver/src/stm32f10x_rcc.c **** 
  50:Libraries/STM32F10x_StdPeriph_Driver/src/stm32f10x_rcc.c **** /* Alias word address of HSION bit */
  51:Libraries/STM32F10x_StdPeriph_Driver/src/stm32f10x_rcc.c **** #define CR_OFFSET                 (RCC_OFFSET + 0x00)
  52:Libraries/STM32F10x_StdPeriph_Driver/src/stm32f10x_rcc.c **** #define HSION_BitNumber           0x00
  53:Libraries/STM32F10x_StdPeriph_Driver/src/stm32f10x_rcc.c **** #define CR_HSION_BB               (PERIPH_BB_BASE + (CR_OFFSET * 32) + (HSION_BitNumber * 4))
  54:Libraries/STM32F10x_StdPeriph_Driver/src/stm32f10x_rcc.c **** 
  55:Libraries/STM32F10x_StdPeriph_Driver/src/stm32f10x_rcc.c **** /* Alias word address of PLLON bit */
  56:Libraries/STM32F10x_StdPeriph_Driver/src/stm32f10x_rcc.c **** #define PLLON_BitNumber           0x18
  57:Libraries/STM32F10x_StdPeriph_Driver/src/stm32f10x_rcc.c **** #define CR_PLLON_BB               (PERIPH_BB_BASE + (CR_OFFSET * 32) + (PLLON_BitNumber * 4))
  58:Libraries/STM32F10x_StdPeriph_Driver/src/stm32f10x_rcc.c **** 
  59:Libraries/STM32F10x_StdPeriph_Driver/src/stm32f10x_rcc.c **** #ifdef STM32F10X_CL
  60:Libraries/STM32F10x_StdPeriph_Driver/src/stm32f10x_rcc.c ****  /* Alias word address of PLL2ON bit */
  61:Libraries/STM32F10x_StdPeriph_Driver/src/stm32f10x_rcc.c ****  #define PLL2ON_BitNumber          0x1A
  62:Libraries/STM32F10x_StdPeriph_Driver/src/stm32f10x_rcc.c ****  #define CR_PLL2ON_BB              (PERIPH_BB_BASE + (CR_OFFSET * 32) + (PLL2ON_BitNumber * 4))
  63:Libraries/STM32F10x_StdPeriph_Driver/src/stm32f10x_rcc.c **** 
  64:Libraries/STM32F10x_StdPeriph_Driver/src/stm32f10x_rcc.c ****  /* Alias word address of PLL3ON bit */
  65:Libraries/STM32F10x_StdPeriph_Driver/src/stm32f10x_rcc.c ****  #define PLL3ON_BitNumber          0x1C
  66:Libraries/STM32F10x_StdPeriph_Driver/src/stm32f10x_rcc.c ****  #define CR_PLL3ON_BB              (PERIPH_BB_BASE + (CR_OFFSET * 32) + (PLL3ON_BitNumber * 4))
  67:Libraries/STM32F10x_StdPeriph_Driver/src/stm32f10x_rcc.c **** #endif /* STM32F10X_CL */ 
  68:Libraries/STM32F10x_StdPeriph_Driver/src/stm32f10x_rcc.c **** 
  69:Libraries/STM32F10x_StdPeriph_Driver/src/stm32f10x_rcc.c **** /* Alias word address of CSSON bit */
  70:Libraries/STM32F10x_StdPeriph_Driver/src/stm32f10x_rcc.c **** #define CSSON_BitNumber           0x13
  71:Libraries/STM32F10x_StdPeriph_Driver/src/stm32f10x_rcc.c **** #define CR_CSSON_BB               (PERIPH_BB_BASE + (CR_OFFSET * 32) + (CSSON_BitNumber * 4))
  72:Libraries/STM32F10x_StdPeriph_Driver/src/stm32f10x_rcc.c **** 
  73:Libraries/STM32F10x_StdPeriph_Driver/src/stm32f10x_rcc.c **** /* --- CFGR Register ---*/
  74:Libraries/STM32F10x_StdPeriph_Driver/src/stm32f10x_rcc.c **** 
  75:Libraries/STM32F10x_StdPeriph_Driver/src/stm32f10x_rcc.c **** /* Alias word address of USBPRE bit */
  76:Libraries/STM32F10x_StdPeriph_Driver/src/stm32f10x_rcc.c **** #define CFGR_OFFSET               (RCC_OFFSET + 0x04)
  77:Libraries/STM32F10x_StdPeriph_Driver/src/stm32f10x_rcc.c **** 
  78:Libraries/STM32F10x_StdPeriph_Driver/src/stm32f10x_rcc.c **** #ifndef STM32F10X_CL
  79:Libraries/STM32F10x_StdPeriph_Driver/src/stm32f10x_rcc.c ****  #define USBPRE_BitNumber          0x16
  80:Libraries/STM32F10x_StdPeriph_Driver/src/stm32f10x_rcc.c ****  #define CFGR_USBPRE_BB            (PERIPH_BB_BASE + (CFGR_OFFSET * 32) + (USBPRE_BitNumber * 4))
  81:Libraries/STM32F10x_StdPeriph_Driver/src/stm32f10x_rcc.c **** #else
  82:Libraries/STM32F10x_StdPeriph_Driver/src/stm32f10x_rcc.c ****  #define OTGFSPRE_BitNumber        0x16
  83:Libraries/STM32F10x_StdPeriph_Driver/src/stm32f10x_rcc.c ****  #define CFGR_OTGFSPRE_BB          (PERIPH_BB_BASE + (CFGR_OFFSET * 32) + (OTGFSPRE_BitNumber * 4))
  84:Libraries/STM32F10x_StdPeriph_Driver/src/stm32f10x_rcc.c **** #endif /* STM32F10X_CL */ 
  85:Libraries/STM32F10x_StdPeriph_Driver/src/stm32f10x_rcc.c **** 
  86:Libraries/STM32F10x_StdPeriph_Driver/src/stm32f10x_rcc.c **** /* --- BDCR Register ---*/
  87:Libraries/STM32F10x_StdPeriph_Driver/src/stm32f10x_rcc.c **** 
  88:Libraries/STM32F10x_StdPeriph_Driver/src/stm32f10x_rcc.c **** /* Alias word address of RTCEN bit */
  89:Libraries/STM32F10x_StdPeriph_Driver/src/stm32f10x_rcc.c **** #define BDCR_OFFSET               (RCC_OFFSET + 0x20)
  90:Libraries/STM32F10x_StdPeriph_Driver/src/stm32f10x_rcc.c **** #define RTCEN_BitNumber           0x0F
  91:Libraries/STM32F10x_StdPeriph_Driver/src/stm32f10x_rcc.c **** #define BDCR_RTCEN_BB             (PERIPH_BB_BASE + (BDCR_OFFSET * 32) + (RTCEN_BitNumber * 4))
  92:Libraries/STM32F10x_StdPeriph_Driver/src/stm32f10x_rcc.c **** 
  93:Libraries/STM32F10x_StdPeriph_Driver/src/stm32f10x_rcc.c **** /* Alias word address of BDRST bit */
  94:Libraries/STM32F10x_StdPeriph_Driver/src/stm32f10x_rcc.c **** #define BDRST_BitNumber           0x10
  95:Libraries/STM32F10x_StdPeriph_Driver/src/stm32f10x_rcc.c **** #define BDCR_BDRST_BB             (PERIPH_BB_BASE + (BDCR_OFFSET * 32) + (BDRST_BitNumber * 4))
  96:Libraries/STM32F10x_StdPeriph_Driver/src/stm32f10x_rcc.c **** 
  97:Libraries/STM32F10x_StdPeriph_Driver/src/stm32f10x_rcc.c **** /* --- CSR Register ---*/
  98:Libraries/STM32F10x_StdPeriph_Driver/src/stm32f10x_rcc.c **** 
  99:Libraries/STM32F10x_StdPeriph_Driver/src/stm32f10x_rcc.c **** /* Alias word address of LSION bit */
 100:Libraries/STM32F10x_StdPeriph_Driver/src/stm32f10x_rcc.c **** #define CSR_OFFSET                (RCC_OFFSET + 0x24)
 101:Libraries/STM32F10x_StdPeriph_Driver/src/stm32f10x_rcc.c **** #define LSION_BitNumber           0x00
 102:Libraries/STM32F10x_StdPeriph_Driver/src/stm32f10x_rcc.c **** #define CSR_LSION_BB              (PERIPH_BB_BASE + (CSR_OFFSET * 32) + (LSION_BitNumber * 4))
 103:Libraries/STM32F10x_StdPeriph_Driver/src/stm32f10x_rcc.c **** 
 104:Libraries/STM32F10x_StdPeriph_Driver/src/stm32f10x_rcc.c **** #ifdef STM32F10X_CL
 105:Libraries/STM32F10x_StdPeriph_Driver/src/stm32f10x_rcc.c **** /* --- CFGR2 Register ---*/
 106:Libraries/STM32F10x_StdPeriph_Driver/src/stm32f10x_rcc.c **** 
 107:Libraries/STM32F10x_StdPeriph_Driver/src/stm32f10x_rcc.c ****  /* Alias word address of I2S2SRC bit */
 108:Libraries/STM32F10x_StdPeriph_Driver/src/stm32f10x_rcc.c ****  #define CFGR2_OFFSET              (RCC_OFFSET + 0x2C)
 109:Libraries/STM32F10x_StdPeriph_Driver/src/stm32f10x_rcc.c ****  #define I2S2SRC_BitNumber         0x11
 110:Libraries/STM32F10x_StdPeriph_Driver/src/stm32f10x_rcc.c ****  #define CFGR2_I2S2SRC_BB          (PERIPH_BB_BASE + (CFGR2_OFFSET * 32) + (I2S2SRC_BitNumber * 4))
 111:Libraries/STM32F10x_StdPeriph_Driver/src/stm32f10x_rcc.c **** 
 112:Libraries/STM32F10x_StdPeriph_Driver/src/stm32f10x_rcc.c ****  /* Alias word address of I2S3SRC bit */
 113:Libraries/STM32F10x_StdPeriph_Driver/src/stm32f10x_rcc.c ****  #define I2S3SRC_BitNumber         0x12
 114:Libraries/STM32F10x_StdPeriph_Driver/src/stm32f10x_rcc.c ****  #define CFGR2_I2S3SRC_BB          (PERIPH_BB_BASE + (CFGR2_OFFSET * 32) + (I2S3SRC_BitNumber * 4))
 115:Libraries/STM32F10x_StdPeriph_Driver/src/stm32f10x_rcc.c **** #endif /* STM32F10X_CL */
 116:Libraries/STM32F10x_StdPeriph_Driver/src/stm32f10x_rcc.c **** 
 117:Libraries/STM32F10x_StdPeriph_Driver/src/stm32f10x_rcc.c **** /* ---------------------- RCC registers bit mask ------------------------ */
 118:Libraries/STM32F10x_StdPeriph_Driver/src/stm32f10x_rcc.c **** 
 119:Libraries/STM32F10x_StdPeriph_Driver/src/stm32f10x_rcc.c **** /* CR register bit mask */
 120:Libraries/STM32F10x_StdPeriph_Driver/src/stm32f10x_rcc.c **** #define CR_HSEBYP_Reset           ((uint32_t)0xFFFBFFFF)
 121:Libraries/STM32F10x_StdPeriph_Driver/src/stm32f10x_rcc.c **** #define CR_HSEBYP_Set             ((uint32_t)0x00040000)
 122:Libraries/STM32F10x_StdPeriph_Driver/src/stm32f10x_rcc.c **** #define CR_HSEON_Reset            ((uint32_t)0xFFFEFFFF)
 123:Libraries/STM32F10x_StdPeriph_Driver/src/stm32f10x_rcc.c **** #define CR_HSEON_Set              ((uint32_t)0x00010000)
 124:Libraries/STM32F10x_StdPeriph_Driver/src/stm32f10x_rcc.c **** #define CR_HSITRIM_Mask           ((uint32_t)0xFFFFFF07)
 125:Libraries/STM32F10x_StdPeriph_Driver/src/stm32f10x_rcc.c **** 
 126:Libraries/STM32F10x_StdPeriph_Driver/src/stm32f10x_rcc.c **** /* CFGR register bit mask */
 127:Libraries/STM32F10x_StdPeriph_Driver/src/stm32f10x_rcc.c **** #if defined (STM32F10X_LD_VL) || defined (STM32F10X_MD_VL) || defined (STM32F10X_CL) 
 128:Libraries/STM32F10x_StdPeriph_Driver/src/stm32f10x_rcc.c ****  #define CFGR_PLL_Mask            ((uint32_t)0xFFC2FFFF)
 129:Libraries/STM32F10x_StdPeriph_Driver/src/stm32f10x_rcc.c **** #else
 130:Libraries/STM32F10x_StdPeriph_Driver/src/stm32f10x_rcc.c ****  #define CFGR_PLL_Mask            ((uint32_t)0xFFC0FFFF)
 131:Libraries/STM32F10x_StdPeriph_Driver/src/stm32f10x_rcc.c **** #endif /* STM32F10X_CL */ 
 132:Libraries/STM32F10x_StdPeriph_Driver/src/stm32f10x_rcc.c **** 
 133:Libraries/STM32F10x_StdPeriph_Driver/src/stm32f10x_rcc.c **** #define CFGR_PLLMull_Mask         ((uint32_t)0x003C0000)
 134:Libraries/STM32F10x_StdPeriph_Driver/src/stm32f10x_rcc.c **** #define CFGR_PLLSRC_Mask          ((uint32_t)0x00010000)
 135:Libraries/STM32F10x_StdPeriph_Driver/src/stm32f10x_rcc.c **** #define CFGR_PLLXTPRE_Mask        ((uint32_t)0x00020000)
 136:Libraries/STM32F10x_StdPeriph_Driver/src/stm32f10x_rcc.c **** #define CFGR_SWS_Mask             ((uint32_t)0x0000000C)
 137:Libraries/STM32F10x_StdPeriph_Driver/src/stm32f10x_rcc.c **** #define CFGR_SW_Mask              ((uint32_t)0xFFFFFFFC)
 138:Libraries/STM32F10x_StdPeriph_Driver/src/stm32f10x_rcc.c **** #define CFGR_HPRE_Reset_Mask      ((uint32_t)0xFFFFFF0F)
 139:Libraries/STM32F10x_StdPeriph_Driver/src/stm32f10x_rcc.c **** #define CFGR_HPRE_Set_Mask        ((uint32_t)0x000000F0)
 140:Libraries/STM32F10x_StdPeriph_Driver/src/stm32f10x_rcc.c **** #define CFGR_PPRE1_Reset_Mask     ((uint32_t)0xFFFFF8FF)
 141:Libraries/STM32F10x_StdPeriph_Driver/src/stm32f10x_rcc.c **** #define CFGR_PPRE1_Set_Mask       ((uint32_t)0x00000700)
 142:Libraries/STM32F10x_StdPeriph_Driver/src/stm32f10x_rcc.c **** #define CFGR_PPRE2_Reset_Mask     ((uint32_t)0xFFFFC7FF)
 143:Libraries/STM32F10x_StdPeriph_Driver/src/stm32f10x_rcc.c **** #define CFGR_PPRE2_Set_Mask       ((uint32_t)0x00003800)
 144:Libraries/STM32F10x_StdPeriph_Driver/src/stm32f10x_rcc.c **** #define CFGR_ADCPRE_Reset_Mask    ((uint32_t)0xFFFF3FFF)
 145:Libraries/STM32F10x_StdPeriph_Driver/src/stm32f10x_rcc.c **** #define CFGR_ADCPRE_Set_Mask      ((uint32_t)0x0000C000)
 146:Libraries/STM32F10x_StdPeriph_Driver/src/stm32f10x_rcc.c **** 
 147:Libraries/STM32F10x_StdPeriph_Driver/src/stm32f10x_rcc.c **** /* CSR register bit mask */
 148:Libraries/STM32F10x_StdPeriph_Driver/src/stm32f10x_rcc.c **** #define CSR_RMVF_Set              ((uint32_t)0x01000000)
 149:Libraries/STM32F10x_StdPeriph_Driver/src/stm32f10x_rcc.c **** 
 150:Libraries/STM32F10x_StdPeriph_Driver/src/stm32f10x_rcc.c **** #if defined (STM32F10X_LD_VL) || defined (STM32F10X_MD_VL) || defined (STM32F10X_CL) 
 151:Libraries/STM32F10x_StdPeriph_Driver/src/stm32f10x_rcc.c **** /* CFGR2 register bit mask */
 152:Libraries/STM32F10x_StdPeriph_Driver/src/stm32f10x_rcc.c ****  #define CFGR2_PREDIV1SRC         ((uint32_t)0x00010000)
 153:Libraries/STM32F10x_StdPeriph_Driver/src/stm32f10x_rcc.c ****  #define CFGR2_PREDIV1            ((uint32_t)0x0000000F)
 154:Libraries/STM32F10x_StdPeriph_Driver/src/stm32f10x_rcc.c **** #endif
 155:Libraries/STM32F10x_StdPeriph_Driver/src/stm32f10x_rcc.c **** #ifdef STM32F10X_CL
 156:Libraries/STM32F10x_StdPeriph_Driver/src/stm32f10x_rcc.c ****  #define CFGR2_PREDIV2            ((uint32_t)0x000000F0)
 157:Libraries/STM32F10x_StdPeriph_Driver/src/stm32f10x_rcc.c ****  #define CFGR2_PLL2MUL            ((uint32_t)0x00000F00)
 158:Libraries/STM32F10x_StdPeriph_Driver/src/stm32f10x_rcc.c ****  #define CFGR2_PLL3MUL            ((uint32_t)0x0000F000)
 159:Libraries/STM32F10x_StdPeriph_Driver/src/stm32f10x_rcc.c **** #endif /* STM32F10X_CL */ 
 160:Libraries/STM32F10x_StdPeriph_Driver/src/stm32f10x_rcc.c **** 
 161:Libraries/STM32F10x_StdPeriph_Driver/src/stm32f10x_rcc.c **** /* RCC Flag Mask */
 162:Libraries/STM32F10x_StdPeriph_Driver/src/stm32f10x_rcc.c **** #define FLAG_Mask                 ((uint8_t)0x1F)
 163:Libraries/STM32F10x_StdPeriph_Driver/src/stm32f10x_rcc.c **** 
 164:Libraries/STM32F10x_StdPeriph_Driver/src/stm32f10x_rcc.c **** #ifndef HSI_Value
 165:Libraries/STM32F10x_StdPeriph_Driver/src/stm32f10x_rcc.c **** /* Typical Value of the HSI in Hz */
 166:Libraries/STM32F10x_StdPeriph_Driver/src/stm32f10x_rcc.c ****  #define HSI_Value                 ((uint32_t)8000000)
 167:Libraries/STM32F10x_StdPeriph_Driver/src/stm32f10x_rcc.c **** #endif /* HSI_Value */
 168:Libraries/STM32F10x_StdPeriph_Driver/src/stm32f10x_rcc.c **** 
 169:Libraries/STM32F10x_StdPeriph_Driver/src/stm32f10x_rcc.c **** /* CIR register byte 2 (Bits[15:8]) base address */
 170:Libraries/STM32F10x_StdPeriph_Driver/src/stm32f10x_rcc.c **** #define CIR_BYTE2_ADDRESS         ((uint32_t)0x40021009)
 171:Libraries/STM32F10x_StdPeriph_Driver/src/stm32f10x_rcc.c **** 
 172:Libraries/STM32F10x_StdPeriph_Driver/src/stm32f10x_rcc.c **** /* CIR register byte 3 (Bits[23:16]) base address */
 173:Libraries/STM32F10x_StdPeriph_Driver/src/stm32f10x_rcc.c **** #define CIR_BYTE3_ADDRESS         ((uint32_t)0x4002100A)
 174:Libraries/STM32F10x_StdPeriph_Driver/src/stm32f10x_rcc.c **** 
 175:Libraries/STM32F10x_StdPeriph_Driver/src/stm32f10x_rcc.c **** /* CFGR register byte 4 (Bits[31:24]) base address */
 176:Libraries/STM32F10x_StdPeriph_Driver/src/stm32f10x_rcc.c **** #define CFGR_BYTE4_ADDRESS        ((uint32_t)0x40021007)
 177:Libraries/STM32F10x_StdPeriph_Driver/src/stm32f10x_rcc.c **** 
 178:Libraries/STM32F10x_StdPeriph_Driver/src/stm32f10x_rcc.c **** /* BDCR register base address */
 179:Libraries/STM32F10x_StdPeriph_Driver/src/stm32f10x_rcc.c **** #define BDCR_ADDRESS              (PERIPH_BASE + BDCR_OFFSET)
 180:Libraries/STM32F10x_StdPeriph_Driver/src/stm32f10x_rcc.c **** 
 181:Libraries/STM32F10x_StdPeriph_Driver/src/stm32f10x_rcc.c **** #ifndef HSEStartUp_TimeOut
 182:Libraries/STM32F10x_StdPeriph_Driver/src/stm32f10x_rcc.c **** /* Time out for HSE start up */
 183:Libraries/STM32F10x_StdPeriph_Driver/src/stm32f10x_rcc.c ****  #define HSEStartUp_TimeOut        ((uint16_t)0x0500)
 184:Libraries/STM32F10x_StdPeriph_Driver/src/stm32f10x_rcc.c **** #endif /* HSEStartUp_TimeOut */
 185:Libraries/STM32F10x_StdPeriph_Driver/src/stm32f10x_rcc.c **** 
 186:Libraries/STM32F10x_StdPeriph_Driver/src/stm32f10x_rcc.c **** /**
 187:Libraries/STM32F10x_StdPeriph_Driver/src/stm32f10x_rcc.c ****   * @}
 188:Libraries/STM32F10x_StdPeriph_Driver/src/stm32f10x_rcc.c ****   */ 
 189:Libraries/STM32F10x_StdPeriph_Driver/src/stm32f10x_rcc.c **** 
 190:Libraries/STM32F10x_StdPeriph_Driver/src/stm32f10x_rcc.c **** /** @defgroup RCC_Private_Macros
 191:Libraries/STM32F10x_StdPeriph_Driver/src/stm32f10x_rcc.c ****   * @{
 192:Libraries/STM32F10x_StdPeriph_Driver/src/stm32f10x_rcc.c ****   */ 
 193:Libraries/STM32F10x_StdPeriph_Driver/src/stm32f10x_rcc.c **** 
 194:Libraries/STM32F10x_StdPeriph_Driver/src/stm32f10x_rcc.c **** /**
 195:Libraries/STM32F10x_StdPeriph_Driver/src/stm32f10x_rcc.c ****   * @}
 196:Libraries/STM32F10x_StdPeriph_Driver/src/stm32f10x_rcc.c ****   */ 
 197:Libraries/STM32F10x_StdPeriph_Driver/src/stm32f10x_rcc.c **** 
 198:Libraries/STM32F10x_StdPeriph_Driver/src/stm32f10x_rcc.c **** /** @defgroup RCC_Private_Variables
 199:Libraries/STM32F10x_StdPeriph_Driver/src/stm32f10x_rcc.c ****   * @{
 200:Libraries/STM32F10x_StdPeriph_Driver/src/stm32f10x_rcc.c ****   */ 
 201:Libraries/STM32F10x_StdPeriph_Driver/src/stm32f10x_rcc.c **** 
 202:Libraries/STM32F10x_StdPeriph_Driver/src/stm32f10x_rcc.c **** static __I uint8_t APBAHBPrescTable[16] = {0, 0, 0, 0, 1, 2, 3, 4, 1, 2, 3, 4, 6, 7, 8, 9};
 203:Libraries/STM32F10x_StdPeriph_Driver/src/stm32f10x_rcc.c **** static __I uint8_t ADCPrescTable[4] = {2, 4, 6, 8};
 204:Libraries/STM32F10x_StdPeriph_Driver/src/stm32f10x_rcc.c **** 
 205:Libraries/STM32F10x_StdPeriph_Driver/src/stm32f10x_rcc.c **** /**
 206:Libraries/STM32F10x_StdPeriph_Driver/src/stm32f10x_rcc.c ****   * @}
 207:Libraries/STM32F10x_StdPeriph_Driver/src/stm32f10x_rcc.c ****   */
 208:Libraries/STM32F10x_StdPeriph_Driver/src/stm32f10x_rcc.c **** 
 209:Libraries/STM32F10x_StdPeriph_Driver/src/stm32f10x_rcc.c **** /** @defgroup RCC_Private_FunctionPrototypes
 210:Libraries/STM32F10x_StdPeriph_Driver/src/stm32f10x_rcc.c ****   * @{
 211:Libraries/STM32F10x_StdPeriph_Driver/src/stm32f10x_rcc.c ****   */
 212:Libraries/STM32F10x_StdPeriph_Driver/src/stm32f10x_rcc.c **** 
 213:Libraries/STM32F10x_StdPeriph_Driver/src/stm32f10x_rcc.c **** /**
 214:Libraries/STM32F10x_StdPeriph_Driver/src/stm32f10x_rcc.c ****   * @}
 215:Libraries/STM32F10x_StdPeriph_Driver/src/stm32f10x_rcc.c ****   */
 216:Libraries/STM32F10x_StdPeriph_Driver/src/stm32f10x_rcc.c **** 
 217:Libraries/STM32F10x_StdPeriph_Driver/src/stm32f10x_rcc.c **** /** @defgroup RCC_Private_Functions
 218:Libraries/STM32F10x_StdPeriph_Driver/src/stm32f10x_rcc.c ****   * @{
 219:Libraries/STM32F10x_StdPeriph_Driver/src/stm32f10x_rcc.c ****   */
 220:Libraries/STM32F10x_StdPeriph_Driver/src/stm32f10x_rcc.c **** 
 221:Libraries/STM32F10x_StdPeriph_Driver/src/stm32f10x_rcc.c **** /**
 222:Libraries/STM32F10x_StdPeriph_Driver/src/stm32f10x_rcc.c ****   * @brief  Resets the RCC clock configuration to the default reset state.
 223:Libraries/STM32F10x_StdPeriph_Driver/src/stm32f10x_rcc.c ****   * @param  None
 224:Libraries/STM32F10x_StdPeriph_Driver/src/stm32f10x_rcc.c ****   * @retval None
 225:Libraries/STM32F10x_StdPeriph_Driver/src/stm32f10x_rcc.c ****   */
 226:Libraries/STM32F10x_StdPeriph_Driver/src/stm32f10x_rcc.c **** void RCC_DeInit(void)
 227:Libraries/STM32F10x_StdPeriph_Driver/src/stm32f10x_rcc.c **** {
  27              		.loc 1 227 0
  28              		.cfi_startproc
  29              		@ args = 0, pretend = 0, frame = 0
  30              		@ frame_needed = 0, uses_anonymous_args = 0
  31              		@ link register save eliminated.
 228:Libraries/STM32F10x_StdPeriph_Driver/src/stm32f10x_rcc.c ****   /* Set HSION bit */
 229:Libraries/STM32F10x_StdPeriph_Driver/src/stm32f10x_rcc.c ****   RCC->CR |= (uint32_t)0x00000001;
  32              		.loc 1 229 0
  33 0000 0D4B     		ldr	r3, .L2
  34 0002 1A68     		ldr	r2, [r3]
  35 0004 42F00102 		orr	r2, r2, #1
  36 0008 1A60     		str	r2, [r3]
 230:Libraries/STM32F10x_StdPeriph_Driver/src/stm32f10x_rcc.c **** 
 231:Libraries/STM32F10x_StdPeriph_Driver/src/stm32f10x_rcc.c ****   /* Reset SW, HPRE, PPRE1, PPRE2, ADCPRE and MCO bits */
 232:Libraries/STM32F10x_StdPeriph_Driver/src/stm32f10x_rcc.c **** #ifndef STM32F10X_CL
 233:Libraries/STM32F10x_StdPeriph_Driver/src/stm32f10x_rcc.c ****   RCC->CFGR &= (uint32_t)0xF8FF0000;
  37              		.loc 1 233 0
  38 000a 5968     		ldr	r1, [r3, #4]
  39 000c 0B4A     		ldr	r2, .L2+4
  40 000e 0A40     		ands	r2, r2, r1
  41 0010 5A60     		str	r2, [r3, #4]
 234:Libraries/STM32F10x_StdPeriph_Driver/src/stm32f10x_rcc.c **** #else
 235:Libraries/STM32F10x_StdPeriph_Driver/src/stm32f10x_rcc.c ****   RCC->CFGR &= (uint32_t)0xF0FF0000;
 236:Libraries/STM32F10x_StdPeriph_Driver/src/stm32f10x_rcc.c **** #endif /* STM32F10X_CL */   
 237:Libraries/STM32F10x_StdPeriph_Driver/src/stm32f10x_rcc.c ****   
 238:Libraries/STM32F10x_StdPeriph_Driver/src/stm32f10x_rcc.c ****   /* Reset HSEON, CSSON and PLLON bits */
 239:Libraries/STM32F10x_StdPeriph_Driver/src/stm32f10x_rcc.c ****   RCC->CR &= (uint32_t)0xFEF6FFFF;
  42              		.loc 1 239 0
  43 0012 1A68     		ldr	r2, [r3]
  44 0014 22F08472 		bic	r2, r2, #17301504
  45 0018 22F48032 		bic	r2, r2, #65536
  46 001c 1A60     		str	r2, [r3]
 240:Libraries/STM32F10x_StdPeriph_Driver/src/stm32f10x_rcc.c **** 
 241:Libraries/STM32F10x_StdPeriph_Driver/src/stm32f10x_rcc.c ****   /* Reset HSEBYP bit */
 242:Libraries/STM32F10x_StdPeriph_Driver/src/stm32f10x_rcc.c ****   RCC->CR &= (uint32_t)0xFFFBFFFF;
  47              		.loc 1 242 0
  48 001e 1A68     		ldr	r2, [r3]
  49 0020 22F48022 		bic	r2, r2, #262144
  50 0024 1A60     		str	r2, [r3]
 243:Libraries/STM32F10x_StdPeriph_Driver/src/stm32f10x_rcc.c **** 
 244:Libraries/STM32F10x_StdPeriph_Driver/src/stm32f10x_rcc.c ****   /* Reset PLLSRC, PLLXTPRE, PLLMUL and USBPRE/OTGFSPRE bits */
 245:Libraries/STM32F10x_StdPeriph_Driver/src/stm32f10x_rcc.c ****   RCC->CFGR &= (uint32_t)0xFF80FFFF;
  51              		.loc 1 245 0
  52 0026 5A68     		ldr	r2, [r3, #4]
  53 0028 22F4FE02 		bic	r2, r2, #8323072
  54 002c 5A60     		str	r2, [r3, #4]
 246:Libraries/STM32F10x_StdPeriph_Driver/src/stm32f10x_rcc.c **** 
 247:Libraries/STM32F10x_StdPeriph_Driver/src/stm32f10x_rcc.c **** #ifdef STM32F10X_CL
 248:Libraries/STM32F10x_StdPeriph_Driver/src/stm32f10x_rcc.c ****   /* Reset PLL2ON and PLL3ON bits */
 249:Libraries/STM32F10x_StdPeriph_Driver/src/stm32f10x_rcc.c ****   RCC->CR &= (uint32_t)0xEBFFFFFF;
 250:Libraries/STM32F10x_StdPeriph_Driver/src/stm32f10x_rcc.c **** 
 251:Libraries/STM32F10x_StdPeriph_Driver/src/stm32f10x_rcc.c ****   /* Disable all interrupts and clear pending bits  */
 252:Libraries/STM32F10x_StdPeriph_Driver/src/stm32f10x_rcc.c ****   RCC->CIR = 0x00FF0000;
 253:Libraries/STM32F10x_StdPeriph_Driver/src/stm32f10x_rcc.c **** 
 254:Libraries/STM32F10x_StdPeriph_Driver/src/stm32f10x_rcc.c ****   /* Reset CFGR2 register */
 255:Libraries/STM32F10x_StdPeriph_Driver/src/stm32f10x_rcc.c ****   RCC->CFGR2 = 0x00000000;
 256:Libraries/STM32F10x_StdPeriph_Driver/src/stm32f10x_rcc.c **** #elif defined (STM32F10X_LD_VL) || defined (STM32F10X_MD_VL) 
 257:Libraries/STM32F10x_StdPeriph_Driver/src/stm32f10x_rcc.c ****   /* Disable all interrupts and clear pending bits  */
 258:Libraries/STM32F10x_StdPeriph_Driver/src/stm32f10x_rcc.c ****   RCC->CIR = 0x009F0000;
 259:Libraries/STM32F10x_StdPeriph_Driver/src/stm32f10x_rcc.c **** 
 260:Libraries/STM32F10x_StdPeriph_Driver/src/stm32f10x_rcc.c ****   /* Reset CFGR2 register */
 261:Libraries/STM32F10x_StdPeriph_Driver/src/stm32f10x_rcc.c ****   RCC->CFGR2 = 0x00000000;      
 262:Libraries/STM32F10x_StdPeriph_Driver/src/stm32f10x_rcc.c **** #else
 263:Libraries/STM32F10x_StdPeriph_Driver/src/stm32f10x_rcc.c ****   /* Disable all interrupts and clear pending bits  */
 264:Libraries/STM32F10x_StdPeriph_Driver/src/stm32f10x_rcc.c ****   RCC->CIR = 0x009F0000;
  55              		.loc 1 264 0
  56 002e 4FF41F02 		mov	r2, #10420224
  57 0032 9A60     		str	r2, [r3, #8]
  58 0034 7047     		bx	lr
  59              	.L3:
  60 0036 00BF     		.align	2
  61              	.L2:
  62 0038 00100240 		.word	1073876992
  63 003c 0000FFF8 		.word	-117506048
  64              		.cfi_endproc
  65              	.LFE29:
  67              		.section	.text.RCC_HSEConfig,"ax",%progbits
  68              		.align	1
  69              		.global	RCC_HSEConfig
  70              		.thumb
  71              		.thumb_func
  73              	RCC_HSEConfig:
  74              	.LFB30:
 265:Libraries/STM32F10x_StdPeriph_Driver/src/stm32f10x_rcc.c **** #endif /* STM32F10X_CL */
 266:Libraries/STM32F10x_StdPeriph_Driver/src/stm32f10x_rcc.c **** 
 267:Libraries/STM32F10x_StdPeriph_Driver/src/stm32f10x_rcc.c **** }
 268:Libraries/STM32F10x_StdPeriph_Driver/src/stm32f10x_rcc.c **** 
 269:Libraries/STM32F10x_StdPeriph_Driver/src/stm32f10x_rcc.c **** /**
 270:Libraries/STM32F10x_StdPeriph_Driver/src/stm32f10x_rcc.c ****   * @brief  Configures the External High Speed oscillator (HSE).
 271:Libraries/STM32F10x_StdPeriph_Driver/src/stm32f10x_rcc.c ****   * @note   HSE can not be stopped if it is used directly or through the PLL as system clock.
 272:Libraries/STM32F10x_StdPeriph_Driver/src/stm32f10x_rcc.c ****   * @param  RCC_HSE: specifies the new state of the HSE.
 273:Libraries/STM32F10x_StdPeriph_Driver/src/stm32f10x_rcc.c ****   *   This parameter can be one of the following values:
 274:Libraries/STM32F10x_StdPeriph_Driver/src/stm32f10x_rcc.c ****   *     @arg RCC_HSE_OFF: HSE oscillator OFF
 275:Libraries/STM32F10x_StdPeriph_Driver/src/stm32f10x_rcc.c ****   *     @arg RCC_HSE_ON: HSE oscillator ON
 276:Libraries/STM32F10x_StdPeriph_Driver/src/stm32f10x_rcc.c ****   *     @arg RCC_HSE_Bypass: HSE oscillator bypassed with external clock
 277:Libraries/STM32F10x_StdPeriph_Driver/src/stm32f10x_rcc.c ****   * @retval None
 278:Libraries/STM32F10x_StdPeriph_Driver/src/stm32f10x_rcc.c ****   */
 279:Libraries/STM32F10x_StdPeriph_Driver/src/stm32f10x_rcc.c **** void RCC_HSEConfig(uint32_t RCC_HSE)
 280:Libraries/STM32F10x_StdPeriph_Driver/src/stm32f10x_rcc.c **** {
  75              		.loc 1 280 0
  76              		.cfi_startproc
  77              		@ args = 0, pretend = 0, frame = 0
  78              		@ frame_needed = 0, uses_anonymous_args = 0
  79              		@ link register save eliminated.
  80              	.LVL0:
 281:Libraries/STM32F10x_StdPeriph_Driver/src/stm32f10x_rcc.c ****   /* Check the parameters */
 282:Libraries/STM32F10x_StdPeriph_Driver/src/stm32f10x_rcc.c ****   assert_param(IS_RCC_HSE(RCC_HSE));
 283:Libraries/STM32F10x_StdPeriph_Driver/src/stm32f10x_rcc.c ****   /* Reset HSEON and HSEBYP bits before configuring the HSE ------------------*/
 284:Libraries/STM32F10x_StdPeriph_Driver/src/stm32f10x_rcc.c ****   /* Reset HSEON bit */
 285:Libraries/STM32F10x_StdPeriph_Driver/src/stm32f10x_rcc.c ****   RCC->CR &= CR_HSEON_Reset;
  81              		.loc 1 285 0
  82 0000 0C4B     		ldr	r3, .L10
 286:Libraries/STM32F10x_StdPeriph_Driver/src/stm32f10x_rcc.c ****   /* Reset HSEBYP bit */
 287:Libraries/STM32F10x_StdPeriph_Driver/src/stm32f10x_rcc.c ****   RCC->CR &= CR_HSEBYP_Reset;
 288:Libraries/STM32F10x_StdPeriph_Driver/src/stm32f10x_rcc.c ****   /* Configure HSE (RCC_HSE_OFF is already covered by the code section above) */
 289:Libraries/STM32F10x_StdPeriph_Driver/src/stm32f10x_rcc.c ****   switch(RCC_HSE)
  83              		.loc 1 289 0
  84 0002 B0F5803F 		cmp	r0, #65536
 285:Libraries/STM32F10x_StdPeriph_Driver/src/stm32f10x_rcc.c ****   /* Reset HSEBYP bit */
  85              		.loc 1 285 0
  86 0006 1A68     		ldr	r2, [r3]
  87 0008 22F48032 		bic	r2, r2, #65536
  88 000c 1A60     		str	r2, [r3]
 287:Libraries/STM32F10x_StdPeriph_Driver/src/stm32f10x_rcc.c ****   /* Configure HSE (RCC_HSE_OFF is already covered by the code section above) */
  89              		.loc 1 287 0
  90 000e 1A68     		ldr	r2, [r3]
  91 0010 22F48022 		bic	r2, r2, #262144
  92 0014 1A60     		str	r2, [r3]
  93              		.loc 1 289 0
  94 0016 03D0     		beq	.L6
  95 0018 B0F5802F 		cmp	r0, #262144
  96 001c 04D0     		beq	.L7
  97 001e 7047     		bx	lr
  98              	.L6:
 290:Libraries/STM32F10x_StdPeriph_Driver/src/stm32f10x_rcc.c ****   {
 291:Libraries/STM32F10x_StdPeriph_Driver/src/stm32f10x_rcc.c ****     case RCC_HSE_ON:
 292:Libraries/STM32F10x_StdPeriph_Driver/src/stm32f10x_rcc.c ****       /* Set HSEON bit */
 293:Libraries/STM32F10x_StdPeriph_Driver/src/stm32f10x_rcc.c ****       RCC->CR |= CR_HSEON_Set;
  99              		.loc 1 293 0
 100 0020 1A68     		ldr	r2, [r3]
 101 0022 42F48032 		orr	r2, r2, #65536
 102 0026 02E0     		b	.L8
 103              	.L7:
 294:Libraries/STM32F10x_StdPeriph_Driver/src/stm32f10x_rcc.c ****       break;
 295:Libraries/STM32F10x_StdPeriph_Driver/src/stm32f10x_rcc.c ****       
 296:Libraries/STM32F10x_StdPeriph_Driver/src/stm32f10x_rcc.c ****     case RCC_HSE_Bypass:
 297:Libraries/STM32F10x_StdPeriph_Driver/src/stm32f10x_rcc.c ****       /* Set HSEBYP and HSEON bits */
 298:Libraries/STM32F10x_StdPeriph_Driver/src/stm32f10x_rcc.c ****       RCC->CR |= CR_HSEBYP_Set | CR_HSEON_Set;
 104              		.loc 1 298 0
 105 0028 1A68     		ldr	r2, [r3]
 106 002a 42F4A022 		orr	r2, r2, #327680
 107              	.L8:
 108 002e 1A60     		str	r2, [r3]
 109 0030 7047     		bx	lr
 110              	.L11:
 111 0032 00BF     		.align	2
 112              	.L10:
 113 0034 00100240 		.word	1073876992
 114              		.cfi_endproc
 115              	.LFE30:
 117              		.section	.text.RCC_AdjustHSICalibrationValue,"ax",%progbits
 118              		.align	1
 119              		.global	RCC_AdjustHSICalibrationValue
 120              		.thumb
 121              		.thumb_func
 123              	RCC_AdjustHSICalibrationValue:
 124              	.LFB32:
 299:Libraries/STM32F10x_StdPeriph_Driver/src/stm32f10x_rcc.c ****       break;
 300:Libraries/STM32F10x_StdPeriph_Driver/src/stm32f10x_rcc.c ****       
 301:Libraries/STM32F10x_StdPeriph_Driver/src/stm32f10x_rcc.c ****     default:
 302:Libraries/STM32F10x_StdPeriph_Driver/src/stm32f10x_rcc.c ****       break;
 303:Libraries/STM32F10x_StdPeriph_Driver/src/stm32f10x_rcc.c ****   }
 304:Libraries/STM32F10x_StdPeriph_Driver/src/stm32f10x_rcc.c **** }
 305:Libraries/STM32F10x_StdPeriph_Driver/src/stm32f10x_rcc.c **** 
 306:Libraries/STM32F10x_StdPeriph_Driver/src/stm32f10x_rcc.c **** /**
 307:Libraries/STM32F10x_StdPeriph_Driver/src/stm32f10x_rcc.c ****   * @brief  Waits for HSE start-up.
 308:Libraries/STM32F10x_StdPeriph_Driver/src/stm32f10x_rcc.c ****   * @param  None
 309:Libraries/STM32F10x_StdPeriph_Driver/src/stm32f10x_rcc.c ****   * @retval An ErrorStatus enumuration value:
 310:Libraries/STM32F10x_StdPeriph_Driver/src/stm32f10x_rcc.c ****   * - SUCCESS: HSE oscillator is stable and ready to use
 311:Libraries/STM32F10x_StdPeriph_Driver/src/stm32f10x_rcc.c ****   * - ERROR: HSE oscillator not yet ready
 312:Libraries/STM32F10x_StdPeriph_Driver/src/stm32f10x_rcc.c ****   */
 313:Libraries/STM32F10x_StdPeriph_Driver/src/stm32f10x_rcc.c **** ErrorStatus RCC_WaitForHSEStartUp(void)
 314:Libraries/STM32F10x_StdPeriph_Driver/src/stm32f10x_rcc.c **** {
 315:Libraries/STM32F10x_StdPeriph_Driver/src/stm32f10x_rcc.c ****   __IO uint32_t StartUpCounter = 0;
 316:Libraries/STM32F10x_StdPeriph_Driver/src/stm32f10x_rcc.c ****   ErrorStatus status = ERROR;
 317:Libraries/STM32F10x_StdPeriph_Driver/src/stm32f10x_rcc.c ****   FlagStatus HSEStatus = RESET;
 318:Libraries/STM32F10x_StdPeriph_Driver/src/stm32f10x_rcc.c ****   
 319:Libraries/STM32F10x_StdPeriph_Driver/src/stm32f10x_rcc.c ****   /* Wait till HSE is ready and if Time out is reached exit */
 320:Libraries/STM32F10x_StdPeriph_Driver/src/stm32f10x_rcc.c ****   do
 321:Libraries/STM32F10x_StdPeriph_Driver/src/stm32f10x_rcc.c ****   {
 322:Libraries/STM32F10x_StdPeriph_Driver/src/stm32f10x_rcc.c ****     HSEStatus = RCC_GetFlagStatus(RCC_FLAG_HSERDY);
 323:Libraries/STM32F10x_StdPeriph_Driver/src/stm32f10x_rcc.c ****     StartUpCounter++;  
 324:Libraries/STM32F10x_StdPeriph_Driver/src/stm32f10x_rcc.c ****   } while((StartUpCounter != HSEStartUp_TimeOut) && (HSEStatus == RESET));
 325:Libraries/STM32F10x_StdPeriph_Driver/src/stm32f10x_rcc.c ****   
 326:Libraries/STM32F10x_StdPeriph_Driver/src/stm32f10x_rcc.c ****   if (RCC_GetFlagStatus(RCC_FLAG_HSERDY) != RESET)
 327:Libraries/STM32F10x_StdPeriph_Driver/src/stm32f10x_rcc.c ****   {
 328:Libraries/STM32F10x_StdPeriph_Driver/src/stm32f10x_rcc.c ****     status = SUCCESS;
 329:Libraries/STM32F10x_StdPeriph_Driver/src/stm32f10x_rcc.c ****   }
 330:Libraries/STM32F10x_StdPeriph_Driver/src/stm32f10x_rcc.c ****   else
 331:Libraries/STM32F10x_StdPeriph_Driver/src/stm32f10x_rcc.c ****   {
 332:Libraries/STM32F10x_StdPeriph_Driver/src/stm32f10x_rcc.c ****     status = ERROR;
 333:Libraries/STM32F10x_StdPeriph_Driver/src/stm32f10x_rcc.c ****   }  
 334:Libraries/STM32F10x_StdPeriph_Driver/src/stm32f10x_rcc.c ****   return (status);
 335:Libraries/STM32F10x_StdPeriph_Driver/src/stm32f10x_rcc.c **** }
 336:Libraries/STM32F10x_StdPeriph_Driver/src/stm32f10x_rcc.c **** 
 337:Libraries/STM32F10x_StdPeriph_Driver/src/stm32f10x_rcc.c **** /**
 338:Libraries/STM32F10x_StdPeriph_Driver/src/stm32f10x_rcc.c ****   * @brief  Adjusts the Internal High Speed oscillator (HSI) calibration value.
 339:Libraries/STM32F10x_StdPeriph_Driver/src/stm32f10x_rcc.c ****   * @param  HSICalibrationValue: specifies the calibration trimming value.
 340:Libraries/STM32F10x_StdPeriph_Driver/src/stm32f10x_rcc.c ****   *   This parameter must be a number between 0 and 0x1F.
 341:Libraries/STM32F10x_StdPeriph_Driver/src/stm32f10x_rcc.c ****   * @retval None
 342:Libraries/STM32F10x_StdPeriph_Driver/src/stm32f10x_rcc.c ****   */
 343:Libraries/STM32F10x_StdPeriph_Driver/src/stm32f10x_rcc.c **** void RCC_AdjustHSICalibrationValue(uint8_t HSICalibrationValue)
 344:Libraries/STM32F10x_StdPeriph_Driver/src/stm32f10x_rcc.c **** {
 125              		.loc 1 344 0
 126              		.cfi_startproc
 127              		@ args = 0, pretend = 0, frame = 0
 128              		@ frame_needed = 0, uses_anonymous_args = 0
 129              		@ link register save eliminated.
 130              	.LVL1:
 345:Libraries/STM32F10x_StdPeriph_Driver/src/stm32f10x_rcc.c ****   uint32_t tmpreg = 0;
 346:Libraries/STM32F10x_StdPeriph_Driver/src/stm32f10x_rcc.c ****   /* Check the parameters */
 347:Libraries/STM32F10x_StdPeriph_Driver/src/stm32f10x_rcc.c ****   assert_param(IS_RCC_CALIBRATION_VALUE(HSICalibrationValue));
 348:Libraries/STM32F10x_StdPeriph_Driver/src/stm32f10x_rcc.c ****   tmpreg = RCC->CR;
 131              		.loc 1 348 0
 132 0000 034A     		ldr	r2, .L13
 133 0002 1368     		ldr	r3, [r2]
 134              	.LVL2:
 349:Libraries/STM32F10x_StdPeriph_Driver/src/stm32f10x_rcc.c ****   /* Clear HSITRIM[4:0] bits */
 350:Libraries/STM32F10x_StdPeriph_Driver/src/stm32f10x_rcc.c ****   tmpreg &= CR_HSITRIM_Mask;
 135              		.loc 1 350 0
 136 0004 23F0F803 		bic	r3, r3, #248
 137              	.LVL3:
 351:Libraries/STM32F10x_StdPeriph_Driver/src/stm32f10x_rcc.c ****   /* Set the HSITRIM[4:0] bits according to HSICalibrationValue value */
 352:Libraries/STM32F10x_StdPeriph_Driver/src/stm32f10x_rcc.c ****   tmpreg |= (uint32_t)HSICalibrationValue << 3;
 138              		.loc 1 352 0
 139 0008 43EAC000 		orr	r0, r3, r0, lsl #3
 140              	.LVL4:
 353:Libraries/STM32F10x_StdPeriph_Driver/src/stm32f10x_rcc.c ****   /* Store the new value */
 354:Libraries/STM32F10x_StdPeriph_Driver/src/stm32f10x_rcc.c ****   RCC->CR = tmpreg;
 141              		.loc 1 354 0
 142 000c 1060     		str	r0, [r2]
 143 000e 7047     		bx	lr
 144              	.L14:
 145              		.align	2
 146              	.L13:
 147 0010 00100240 		.word	1073876992
 148              		.cfi_endproc
 149              	.LFE32:
 151              		.section	.text.RCC_HSICmd,"ax",%progbits
 152              		.align	1
 153              		.global	RCC_HSICmd
 154              		.thumb
 155              		.thumb_func
 157              	RCC_HSICmd:
 158              	.LFB33:
 355:Libraries/STM32F10x_StdPeriph_Driver/src/stm32f10x_rcc.c **** }
 356:Libraries/STM32F10x_StdPeriph_Driver/src/stm32f10x_rcc.c **** 
 357:Libraries/STM32F10x_StdPeriph_Driver/src/stm32f10x_rcc.c **** /**
 358:Libraries/STM32F10x_StdPeriph_Driver/src/stm32f10x_rcc.c ****   * @brief  Enables or disables the Internal High Speed oscillator (HSI).
 359:Libraries/STM32F10x_StdPeriph_Driver/src/stm32f10x_rcc.c ****   * @note   HSI can not be stopped if it is used directly or through the PLL as system clock.
 360:Libraries/STM32F10x_StdPeriph_Driver/src/stm32f10x_rcc.c ****   * @param  NewState: new state of the HSI. This parameter can be: ENABLE or DISABLE.
 361:Libraries/STM32F10x_StdPeriph_Driver/src/stm32f10x_rcc.c ****   * @retval None
 362:Libraries/STM32F10x_StdPeriph_Driver/src/stm32f10x_rcc.c ****   */
 363:Libraries/STM32F10x_StdPeriph_Driver/src/stm32f10x_rcc.c **** void RCC_HSICmd(FunctionalState NewState)
 364:Libraries/STM32F10x_StdPeriph_Driver/src/stm32f10x_rcc.c **** {
 159              		.loc 1 364 0
 160              		.cfi_startproc
 161              		@ args = 0, pretend = 0, frame = 0
 162              		@ frame_needed = 0, uses_anonymous_args = 0
 163              		@ link register save eliminated.
 164              	.LVL5:
 365:Libraries/STM32F10x_StdPeriph_Driver/src/stm32f10x_rcc.c ****   /* Check the parameters */
 366:Libraries/STM32F10x_StdPeriph_Driver/src/stm32f10x_rcc.c ****   assert_param(IS_FUNCTIONAL_STATE(NewState));
 367:Libraries/STM32F10x_StdPeriph_Driver/src/stm32f10x_rcc.c ****   *(__IO uint32_t *) CR_HSION_BB = (uint32_t)NewState;
 165              		.loc 1 367 0
 166 0000 014B     		ldr	r3, .L16
 167 0002 1860     		str	r0, [r3]
 168 0004 7047     		bx	lr
 169              	.L17:
 170 0006 00BF     		.align	2
 171              	.L16:
 172 0008 00004242 		.word	1111621632
 173              		.cfi_endproc
 174              	.LFE33:
 176              		.section	.text.RCC_PLLConfig,"ax",%progbits
 177              		.align	1
 178              		.global	RCC_PLLConfig
 179              		.thumb
 180              		.thumb_func
 182              	RCC_PLLConfig:
 183              	.LFB34:
 368:Libraries/STM32F10x_StdPeriph_Driver/src/stm32f10x_rcc.c **** }
 369:Libraries/STM32F10x_StdPeriph_Driver/src/stm32f10x_rcc.c **** 
 370:Libraries/STM32F10x_StdPeriph_Driver/src/stm32f10x_rcc.c **** /**
 371:Libraries/STM32F10x_StdPeriph_Driver/src/stm32f10x_rcc.c ****   * @brief  Configures the PLL clock source and multiplication factor.
 372:Libraries/STM32F10x_StdPeriph_Driver/src/stm32f10x_rcc.c ****   * @note   This function must be used only when the PLL is disabled.
 373:Libraries/STM32F10x_StdPeriph_Driver/src/stm32f10x_rcc.c ****   * @param  RCC_PLLSource: specifies the PLL entry clock source.
 374:Libraries/STM32F10x_StdPeriph_Driver/src/stm32f10x_rcc.c ****   *   For @b STM32_Connectivity_line_devices or @b STM32_Value_line_devices, 
 375:Libraries/STM32F10x_StdPeriph_Driver/src/stm32f10x_rcc.c ****   *   this parameter can be one of the following values:
 376:Libraries/STM32F10x_StdPeriph_Driver/src/stm32f10x_rcc.c ****   *     @arg RCC_PLLSource_HSI_Div2: HSI oscillator clock divided by 2 selected as PLL clock entry
 377:Libraries/STM32F10x_StdPeriph_Driver/src/stm32f10x_rcc.c ****   *     @arg RCC_PLLSource_PREDIV1: PREDIV1 clock selected as PLL clock entry
 378:Libraries/STM32F10x_StdPeriph_Driver/src/stm32f10x_rcc.c ****   *   For @b other_STM32_devices, this parameter can be one of the following values:
 379:Libraries/STM32F10x_StdPeriph_Driver/src/stm32f10x_rcc.c ****   *     @arg RCC_PLLSource_HSI_Div2: HSI oscillator clock divided by 2 selected as PLL clock entry
 380:Libraries/STM32F10x_StdPeriph_Driver/src/stm32f10x_rcc.c ****   *     @arg RCC_PLLSource_HSE_Div1: HSE oscillator clock selected as PLL clock entry
 381:Libraries/STM32F10x_StdPeriph_Driver/src/stm32f10x_rcc.c ****   *     @arg RCC_PLLSource_HSE_Div2: HSE oscillator clock divided by 2 selected as PLL clock entry 
 382:Libraries/STM32F10x_StdPeriph_Driver/src/stm32f10x_rcc.c ****   * @param  RCC_PLLMul: specifies the PLL multiplication factor.
 383:Libraries/STM32F10x_StdPeriph_Driver/src/stm32f10x_rcc.c ****   *   For @b STM32_Connectivity_line_devices, this parameter can be RCC_PLLMul_x where x:{[4,9], 6_
 384:Libraries/STM32F10x_StdPeriph_Driver/src/stm32f10x_rcc.c ****   *   For @b other_STM32_devices, this parameter can be RCC_PLLMul_x where x:[2,16]  
 385:Libraries/STM32F10x_StdPeriph_Driver/src/stm32f10x_rcc.c ****   * @retval None
 386:Libraries/STM32F10x_StdPeriph_Driver/src/stm32f10x_rcc.c ****   */
 387:Libraries/STM32F10x_StdPeriph_Driver/src/stm32f10x_rcc.c **** void RCC_PLLConfig(uint32_t RCC_PLLSource, uint32_t RCC_PLLMul)
 388:Libraries/STM32F10x_StdPeriph_Driver/src/stm32f10x_rcc.c **** {
 184              		.loc 1 388 0
 185              		.cfi_startproc
 186              		@ args = 0, pretend = 0, frame = 0
 187              		@ frame_needed = 0, uses_anonymous_args = 0
 188              		@ link register save eliminated.
 189              	.LVL6:
 389:Libraries/STM32F10x_StdPeriph_Driver/src/stm32f10x_rcc.c ****   uint32_t tmpreg = 0;
 390:Libraries/STM32F10x_StdPeriph_Driver/src/stm32f10x_rcc.c **** 
 391:Libraries/STM32F10x_StdPeriph_Driver/src/stm32f10x_rcc.c ****   /* Check the parameters */
 392:Libraries/STM32F10x_StdPeriph_Driver/src/stm32f10x_rcc.c ****   assert_param(IS_RCC_PLL_SOURCE(RCC_PLLSource));
 393:Libraries/STM32F10x_StdPeriph_Driver/src/stm32f10x_rcc.c ****   assert_param(IS_RCC_PLL_MUL(RCC_PLLMul));
 394:Libraries/STM32F10x_StdPeriph_Driver/src/stm32f10x_rcc.c **** 
 395:Libraries/STM32F10x_StdPeriph_Driver/src/stm32f10x_rcc.c ****   tmpreg = RCC->CFGR;
 190              		.loc 1 395 0
 191 0000 034A     		ldr	r2, .L19
 192 0002 5368     		ldr	r3, [r2, #4]
 193              	.LVL7:
 396:Libraries/STM32F10x_StdPeriph_Driver/src/stm32f10x_rcc.c ****   /* Clear PLLSRC, PLLXTPRE and PLLMUL[3:0] bits */
 397:Libraries/STM32F10x_StdPeriph_Driver/src/stm32f10x_rcc.c ****   tmpreg &= CFGR_PLL_Mask;
 194              		.loc 1 397 0
 195 0004 23F47C13 		bic	r3, r3, #4128768
 196              	.LVL8:
 197 0008 1943     		orrs	r1, r1, r3
 198              	.LVL9:
 398:Libraries/STM32F10x_StdPeriph_Driver/src/stm32f10x_rcc.c ****   /* Set the PLL configuration bits */
 399:Libraries/STM32F10x_StdPeriph_Driver/src/stm32f10x_rcc.c ****   tmpreg |= RCC_PLLSource | RCC_PLLMul;
 199              		.loc 1 399 0
 200 000a 0843     		orrs	r0, r0, r1
 201              	.LVL10:
 400:Libraries/STM32F10x_StdPeriph_Driver/src/stm32f10x_rcc.c ****   /* Store the new value */
 401:Libraries/STM32F10x_StdPeriph_Driver/src/stm32f10x_rcc.c ****   RCC->CFGR = tmpreg;
 202              		.loc 1 401 0
 203 000c 5060     		str	r0, [r2, #4]
 204 000e 7047     		bx	lr
 205              	.L20:
 206              		.align	2
 207              	.L19:
 208 0010 00100240 		.word	1073876992
 209              		.cfi_endproc
 210              	.LFE34:
 212              		.section	.text.RCC_PLLCmd,"ax",%progbits
 213              		.align	1
 214              		.global	RCC_PLLCmd
 215              		.thumb
 216              		.thumb_func
 218              	RCC_PLLCmd:
 219              	.LFB35:
 402:Libraries/STM32F10x_StdPeriph_Driver/src/stm32f10x_rcc.c **** }
 403:Libraries/STM32F10x_StdPeriph_Driver/src/stm32f10x_rcc.c **** 
 404:Libraries/STM32F10x_StdPeriph_Driver/src/stm32f10x_rcc.c **** /**
 405:Libraries/STM32F10x_StdPeriph_Driver/src/stm32f10x_rcc.c ****   * @brief  Enables or disables the PLL.
 406:Libraries/STM32F10x_StdPeriph_Driver/src/stm32f10x_rcc.c ****   * @note   The PLL can not be disabled if it is used as system clock.
 407:Libraries/STM32F10x_StdPeriph_Driver/src/stm32f10x_rcc.c ****   * @param  NewState: new state of the PLL. This parameter can be: ENABLE or DISABLE.
 408:Libraries/STM32F10x_StdPeriph_Driver/src/stm32f10x_rcc.c ****   * @retval None
 409:Libraries/STM32F10x_StdPeriph_Driver/src/stm32f10x_rcc.c ****   */
 410:Libraries/STM32F10x_StdPeriph_Driver/src/stm32f10x_rcc.c **** void RCC_PLLCmd(FunctionalState NewState)
 411:Libraries/STM32F10x_StdPeriph_Driver/src/stm32f10x_rcc.c **** {
 220              		.loc 1 411 0
 221              		.cfi_startproc
 222              		@ args = 0, pretend = 0, frame = 0
 223              		@ frame_needed = 0, uses_anonymous_args = 0
 224              		@ link register save eliminated.
 225              	.LVL11:
 412:Libraries/STM32F10x_StdPeriph_Driver/src/stm32f10x_rcc.c ****   /* Check the parameters */
 413:Libraries/STM32F10x_StdPeriph_Driver/src/stm32f10x_rcc.c ****   assert_param(IS_FUNCTIONAL_STATE(NewState));
 414:Libraries/STM32F10x_StdPeriph_Driver/src/stm32f10x_rcc.c **** 
 415:Libraries/STM32F10x_StdPeriph_Driver/src/stm32f10x_rcc.c ****   *(__IO uint32_t *) CR_PLLON_BB = (uint32_t)NewState;
 226              		.loc 1 415 0
 227 0000 014B     		ldr	r3, .L22
 228 0002 1860     		str	r0, [r3]
 229 0004 7047     		bx	lr
 230              	.L23:
 231 0006 00BF     		.align	2
 232              	.L22:
 233 0008 60004242 		.word	1111621728
 234              		.cfi_endproc
 235              	.LFE35:
 237              		.section	.text.RCC_SYSCLKConfig,"ax",%progbits
 238              		.align	1
 239              		.global	RCC_SYSCLKConfig
 240              		.thumb
 241              		.thumb_func
 243              	RCC_SYSCLKConfig:
 244              	.LFB36:
 416:Libraries/STM32F10x_StdPeriph_Driver/src/stm32f10x_rcc.c **** }
 417:Libraries/STM32F10x_StdPeriph_Driver/src/stm32f10x_rcc.c **** 
 418:Libraries/STM32F10x_StdPeriph_Driver/src/stm32f10x_rcc.c **** #if defined (STM32F10X_LD_VL) || defined (STM32F10X_MD_VL) || defined (STM32F10X_CL)
 419:Libraries/STM32F10x_StdPeriph_Driver/src/stm32f10x_rcc.c **** /**
 420:Libraries/STM32F10x_StdPeriph_Driver/src/stm32f10x_rcc.c ****   * @brief  Configures the PREDIV1 division factor.
 421:Libraries/STM32F10x_StdPeriph_Driver/src/stm32f10x_rcc.c ****   * @note 
 422:Libraries/STM32F10x_StdPeriph_Driver/src/stm32f10x_rcc.c ****   *   - This function must be used only when the PLL is disabled.
 423:Libraries/STM32F10x_StdPeriph_Driver/src/stm32f10x_rcc.c ****   *   - This function applies only to STM32 Connectivity line and Value line 
 424:Libraries/STM32F10x_StdPeriph_Driver/src/stm32f10x_rcc.c ****   *     devices.
 425:Libraries/STM32F10x_StdPeriph_Driver/src/stm32f10x_rcc.c ****   * @param  RCC_PREDIV1_Source: specifies the PREDIV1 clock source.
 426:Libraries/STM32F10x_StdPeriph_Driver/src/stm32f10x_rcc.c ****   *   This parameter can be one of the following values:
 427:Libraries/STM32F10x_StdPeriph_Driver/src/stm32f10x_rcc.c ****   *     @arg RCC_PREDIV1_Source_HSE: HSE selected as PREDIV1 clock
 428:Libraries/STM32F10x_StdPeriph_Driver/src/stm32f10x_rcc.c ****   *     @arg RCC_PREDIV1_Source_PLL2: PLL2 selected as PREDIV1 clock
 429:Libraries/STM32F10x_StdPeriph_Driver/src/stm32f10x_rcc.c ****   * @note 
 430:Libraries/STM32F10x_StdPeriph_Driver/src/stm32f10x_rcc.c ****   *   For @b STM32_Value_line_devices this parameter is always RCC_PREDIV1_Source_HSE  
 431:Libraries/STM32F10x_StdPeriph_Driver/src/stm32f10x_rcc.c ****   * @param  RCC_PREDIV1_Div: specifies the PREDIV1 clock division factor.
 432:Libraries/STM32F10x_StdPeriph_Driver/src/stm32f10x_rcc.c ****   *   This parameter can be RCC_PREDIV1_Divx where x:[1,16]
 433:Libraries/STM32F10x_StdPeriph_Driver/src/stm32f10x_rcc.c ****   * @retval None
 434:Libraries/STM32F10x_StdPeriph_Driver/src/stm32f10x_rcc.c ****   */
 435:Libraries/STM32F10x_StdPeriph_Driver/src/stm32f10x_rcc.c **** void RCC_PREDIV1Config(uint32_t RCC_PREDIV1_Source, uint32_t RCC_PREDIV1_Div)
 436:Libraries/STM32F10x_StdPeriph_Driver/src/stm32f10x_rcc.c **** {
 437:Libraries/STM32F10x_StdPeriph_Driver/src/stm32f10x_rcc.c ****   uint32_t tmpreg = 0;
 438:Libraries/STM32F10x_StdPeriph_Driver/src/stm32f10x_rcc.c ****   
 439:Libraries/STM32F10x_StdPeriph_Driver/src/stm32f10x_rcc.c ****   /* Check the parameters */
 440:Libraries/STM32F10x_StdPeriph_Driver/src/stm32f10x_rcc.c ****   assert_param(IS_RCC_PREDIV1_SOURCE(RCC_PREDIV1_Source));
 441:Libraries/STM32F10x_StdPeriph_Driver/src/stm32f10x_rcc.c ****   assert_param(IS_RCC_PREDIV1(RCC_PREDIV1_Div));
 442:Libraries/STM32F10x_StdPeriph_Driver/src/stm32f10x_rcc.c **** 
 443:Libraries/STM32F10x_StdPeriph_Driver/src/stm32f10x_rcc.c ****   tmpreg = RCC->CFGR2;
 444:Libraries/STM32F10x_StdPeriph_Driver/src/stm32f10x_rcc.c ****   /* Clear PREDIV1[3:0] and PREDIV1SRC bits */
 445:Libraries/STM32F10x_StdPeriph_Driver/src/stm32f10x_rcc.c ****   tmpreg &= ~(CFGR2_PREDIV1 | CFGR2_PREDIV1SRC);
 446:Libraries/STM32F10x_StdPeriph_Driver/src/stm32f10x_rcc.c ****   /* Set the PREDIV1 clock source and division factor */
 447:Libraries/STM32F10x_StdPeriph_Driver/src/stm32f10x_rcc.c ****   tmpreg |= RCC_PREDIV1_Source | RCC_PREDIV1_Div ;
 448:Libraries/STM32F10x_StdPeriph_Driver/src/stm32f10x_rcc.c ****   /* Store the new value */
 449:Libraries/STM32F10x_StdPeriph_Driver/src/stm32f10x_rcc.c ****   RCC->CFGR2 = tmpreg;
 450:Libraries/STM32F10x_StdPeriph_Driver/src/stm32f10x_rcc.c **** }
 451:Libraries/STM32F10x_StdPeriph_Driver/src/stm32f10x_rcc.c **** #endif
 452:Libraries/STM32F10x_StdPeriph_Driver/src/stm32f10x_rcc.c **** 
 453:Libraries/STM32F10x_StdPeriph_Driver/src/stm32f10x_rcc.c **** #ifdef STM32F10X_CL
 454:Libraries/STM32F10x_StdPeriph_Driver/src/stm32f10x_rcc.c **** /**
 455:Libraries/STM32F10x_StdPeriph_Driver/src/stm32f10x_rcc.c ****   * @brief  Configures the PREDIV2 division factor.
 456:Libraries/STM32F10x_StdPeriph_Driver/src/stm32f10x_rcc.c ****   * @note 
 457:Libraries/STM32F10x_StdPeriph_Driver/src/stm32f10x_rcc.c ****   *   - This function must be used only when both PLL2 and PLL3 are disabled.
 458:Libraries/STM32F10x_StdPeriph_Driver/src/stm32f10x_rcc.c ****   *   - This function applies only to STM32 Connectivity line devices.
 459:Libraries/STM32F10x_StdPeriph_Driver/src/stm32f10x_rcc.c ****   * @param  RCC_PREDIV2_Div: specifies the PREDIV2 clock division factor.
 460:Libraries/STM32F10x_StdPeriph_Driver/src/stm32f10x_rcc.c ****   *   This parameter can be RCC_PREDIV2_Divx where x:[1,16]
 461:Libraries/STM32F10x_StdPeriph_Driver/src/stm32f10x_rcc.c ****   * @retval None
 462:Libraries/STM32F10x_StdPeriph_Driver/src/stm32f10x_rcc.c ****   */
 463:Libraries/STM32F10x_StdPeriph_Driver/src/stm32f10x_rcc.c **** void RCC_PREDIV2Config(uint32_t RCC_PREDIV2_Div)
 464:Libraries/STM32F10x_StdPeriph_Driver/src/stm32f10x_rcc.c **** {
 465:Libraries/STM32F10x_StdPeriph_Driver/src/stm32f10x_rcc.c ****   uint32_t tmpreg = 0;
 466:Libraries/STM32F10x_StdPeriph_Driver/src/stm32f10x_rcc.c **** 
 467:Libraries/STM32F10x_StdPeriph_Driver/src/stm32f10x_rcc.c ****   /* Check the parameters */
 468:Libraries/STM32F10x_StdPeriph_Driver/src/stm32f10x_rcc.c ****   assert_param(IS_RCC_PREDIV2(RCC_PREDIV2_Div));
 469:Libraries/STM32F10x_StdPeriph_Driver/src/stm32f10x_rcc.c **** 
 470:Libraries/STM32F10x_StdPeriph_Driver/src/stm32f10x_rcc.c ****   tmpreg = RCC->CFGR2;
 471:Libraries/STM32F10x_StdPeriph_Driver/src/stm32f10x_rcc.c ****   /* Clear PREDIV2[3:0] bits */
 472:Libraries/STM32F10x_StdPeriph_Driver/src/stm32f10x_rcc.c ****   tmpreg &= ~CFGR2_PREDIV2;
 473:Libraries/STM32F10x_StdPeriph_Driver/src/stm32f10x_rcc.c ****   /* Set the PREDIV2 division factor */
 474:Libraries/STM32F10x_StdPeriph_Driver/src/stm32f10x_rcc.c ****   tmpreg |= RCC_PREDIV2_Div;
 475:Libraries/STM32F10x_StdPeriph_Driver/src/stm32f10x_rcc.c ****   /* Store the new value */
 476:Libraries/STM32F10x_StdPeriph_Driver/src/stm32f10x_rcc.c ****   RCC->CFGR2 = tmpreg;
 477:Libraries/STM32F10x_StdPeriph_Driver/src/stm32f10x_rcc.c **** }
 478:Libraries/STM32F10x_StdPeriph_Driver/src/stm32f10x_rcc.c **** 
 479:Libraries/STM32F10x_StdPeriph_Driver/src/stm32f10x_rcc.c **** /**
 480:Libraries/STM32F10x_StdPeriph_Driver/src/stm32f10x_rcc.c ****   * @brief  Configures the PLL2 multiplication factor.
 481:Libraries/STM32F10x_StdPeriph_Driver/src/stm32f10x_rcc.c ****   * @note
 482:Libraries/STM32F10x_StdPeriph_Driver/src/stm32f10x_rcc.c ****   *   - This function must be used only when the PLL2 is disabled.
 483:Libraries/STM32F10x_StdPeriph_Driver/src/stm32f10x_rcc.c ****   *   - This function applies only to STM32 Connectivity line devices.
 484:Libraries/STM32F10x_StdPeriph_Driver/src/stm32f10x_rcc.c ****   * @param  RCC_PLL2Mul: specifies the PLL2 multiplication factor.
 485:Libraries/STM32F10x_StdPeriph_Driver/src/stm32f10x_rcc.c ****   *   This parameter can be RCC_PLL2Mul_x where x:{[8,14], 16, 20}
 486:Libraries/STM32F10x_StdPeriph_Driver/src/stm32f10x_rcc.c ****   * @retval None
 487:Libraries/STM32F10x_StdPeriph_Driver/src/stm32f10x_rcc.c ****   */
 488:Libraries/STM32F10x_StdPeriph_Driver/src/stm32f10x_rcc.c **** void RCC_PLL2Config(uint32_t RCC_PLL2Mul)
 489:Libraries/STM32F10x_StdPeriph_Driver/src/stm32f10x_rcc.c **** {
 490:Libraries/STM32F10x_StdPeriph_Driver/src/stm32f10x_rcc.c ****   uint32_t tmpreg = 0;
 491:Libraries/STM32F10x_StdPeriph_Driver/src/stm32f10x_rcc.c **** 
 492:Libraries/STM32F10x_StdPeriph_Driver/src/stm32f10x_rcc.c ****   /* Check the parameters */
 493:Libraries/STM32F10x_StdPeriph_Driver/src/stm32f10x_rcc.c ****   assert_param(IS_RCC_PLL2_MUL(RCC_PLL2Mul));
 494:Libraries/STM32F10x_StdPeriph_Driver/src/stm32f10x_rcc.c **** 
 495:Libraries/STM32F10x_StdPeriph_Driver/src/stm32f10x_rcc.c ****   tmpreg = RCC->CFGR2;
 496:Libraries/STM32F10x_StdPeriph_Driver/src/stm32f10x_rcc.c ****   /* Clear PLL2Mul[3:0] bits */
 497:Libraries/STM32F10x_StdPeriph_Driver/src/stm32f10x_rcc.c ****   tmpreg &= ~CFGR2_PLL2MUL;
 498:Libraries/STM32F10x_StdPeriph_Driver/src/stm32f10x_rcc.c ****   /* Set the PLL2 configuration bits */
 499:Libraries/STM32F10x_StdPeriph_Driver/src/stm32f10x_rcc.c ****   tmpreg |= RCC_PLL2Mul;
 500:Libraries/STM32F10x_StdPeriph_Driver/src/stm32f10x_rcc.c ****   /* Store the new value */
 501:Libraries/STM32F10x_StdPeriph_Driver/src/stm32f10x_rcc.c ****   RCC->CFGR2 = tmpreg;
 502:Libraries/STM32F10x_StdPeriph_Driver/src/stm32f10x_rcc.c **** }
 503:Libraries/STM32F10x_StdPeriph_Driver/src/stm32f10x_rcc.c **** 
 504:Libraries/STM32F10x_StdPeriph_Driver/src/stm32f10x_rcc.c **** 
 505:Libraries/STM32F10x_StdPeriph_Driver/src/stm32f10x_rcc.c **** /**
 506:Libraries/STM32F10x_StdPeriph_Driver/src/stm32f10x_rcc.c ****   * @brief  Enables or disables the PLL2.
 507:Libraries/STM32F10x_StdPeriph_Driver/src/stm32f10x_rcc.c ****   * @note 
 508:Libraries/STM32F10x_StdPeriph_Driver/src/stm32f10x_rcc.c ****   *   - The PLL2 can not be disabled if it is used indirectly as system clock
 509:Libraries/STM32F10x_StdPeriph_Driver/src/stm32f10x_rcc.c ****   *     (i.e. it is used as PLL clock entry that is used as System clock).
 510:Libraries/STM32F10x_StdPeriph_Driver/src/stm32f10x_rcc.c ****   *   - This function applies only to STM32 Connectivity line devices.
 511:Libraries/STM32F10x_StdPeriph_Driver/src/stm32f10x_rcc.c ****   * @param  NewState: new state of the PLL2. This parameter can be: ENABLE or DISABLE.
 512:Libraries/STM32F10x_StdPeriph_Driver/src/stm32f10x_rcc.c ****   * @retval None
 513:Libraries/STM32F10x_StdPeriph_Driver/src/stm32f10x_rcc.c ****   */
 514:Libraries/STM32F10x_StdPeriph_Driver/src/stm32f10x_rcc.c **** void RCC_PLL2Cmd(FunctionalState NewState)
 515:Libraries/STM32F10x_StdPeriph_Driver/src/stm32f10x_rcc.c **** {
 516:Libraries/STM32F10x_StdPeriph_Driver/src/stm32f10x_rcc.c ****   /* Check the parameters */
 517:Libraries/STM32F10x_StdPeriph_Driver/src/stm32f10x_rcc.c ****   assert_param(IS_FUNCTIONAL_STATE(NewState));
 518:Libraries/STM32F10x_StdPeriph_Driver/src/stm32f10x_rcc.c **** 
 519:Libraries/STM32F10x_StdPeriph_Driver/src/stm32f10x_rcc.c ****   *(__IO uint32_t *) CR_PLL2ON_BB = (uint32_t)NewState;
 520:Libraries/STM32F10x_StdPeriph_Driver/src/stm32f10x_rcc.c **** }
 521:Libraries/STM32F10x_StdPeriph_Driver/src/stm32f10x_rcc.c **** 
 522:Libraries/STM32F10x_StdPeriph_Driver/src/stm32f10x_rcc.c **** 
 523:Libraries/STM32F10x_StdPeriph_Driver/src/stm32f10x_rcc.c **** /**
 524:Libraries/STM32F10x_StdPeriph_Driver/src/stm32f10x_rcc.c ****   * @brief  Configures the PLL3 multiplication factor.
 525:Libraries/STM32F10x_StdPeriph_Driver/src/stm32f10x_rcc.c ****   * @note 
 526:Libraries/STM32F10x_StdPeriph_Driver/src/stm32f10x_rcc.c ****   *   - This function must be used only when the PLL3 is disabled.
 527:Libraries/STM32F10x_StdPeriph_Driver/src/stm32f10x_rcc.c ****   *   - This function applies only to STM32 Connectivity line devices.
 528:Libraries/STM32F10x_StdPeriph_Driver/src/stm32f10x_rcc.c ****   * @param  RCC_PLL3Mul: specifies the PLL3 multiplication factor.
 529:Libraries/STM32F10x_StdPeriph_Driver/src/stm32f10x_rcc.c ****   *   This parameter can be RCC_PLL3Mul_x where x:{[8,14], 16, 20}
 530:Libraries/STM32F10x_StdPeriph_Driver/src/stm32f10x_rcc.c ****   * @retval None
 531:Libraries/STM32F10x_StdPeriph_Driver/src/stm32f10x_rcc.c ****   */
 532:Libraries/STM32F10x_StdPeriph_Driver/src/stm32f10x_rcc.c **** void RCC_PLL3Config(uint32_t RCC_PLL3Mul)
 533:Libraries/STM32F10x_StdPeriph_Driver/src/stm32f10x_rcc.c **** {
 534:Libraries/STM32F10x_StdPeriph_Driver/src/stm32f10x_rcc.c ****   uint32_t tmpreg = 0;
 535:Libraries/STM32F10x_StdPeriph_Driver/src/stm32f10x_rcc.c **** 
 536:Libraries/STM32F10x_StdPeriph_Driver/src/stm32f10x_rcc.c ****   /* Check the parameters */
 537:Libraries/STM32F10x_StdPeriph_Driver/src/stm32f10x_rcc.c ****   assert_param(IS_RCC_PLL3_MUL(RCC_PLL3Mul));
 538:Libraries/STM32F10x_StdPeriph_Driver/src/stm32f10x_rcc.c **** 
 539:Libraries/STM32F10x_StdPeriph_Driver/src/stm32f10x_rcc.c ****   tmpreg = RCC->CFGR2;
 540:Libraries/STM32F10x_StdPeriph_Driver/src/stm32f10x_rcc.c ****   /* Clear PLL3Mul[3:0] bits */
 541:Libraries/STM32F10x_StdPeriph_Driver/src/stm32f10x_rcc.c ****   tmpreg &= ~CFGR2_PLL3MUL;
 542:Libraries/STM32F10x_StdPeriph_Driver/src/stm32f10x_rcc.c ****   /* Set the PLL3 configuration bits */
 543:Libraries/STM32F10x_StdPeriph_Driver/src/stm32f10x_rcc.c ****   tmpreg |= RCC_PLL3Mul;
 544:Libraries/STM32F10x_StdPeriph_Driver/src/stm32f10x_rcc.c ****   /* Store the new value */
 545:Libraries/STM32F10x_StdPeriph_Driver/src/stm32f10x_rcc.c ****   RCC->CFGR2 = tmpreg;
 546:Libraries/STM32F10x_StdPeriph_Driver/src/stm32f10x_rcc.c **** }
 547:Libraries/STM32F10x_StdPeriph_Driver/src/stm32f10x_rcc.c **** 
 548:Libraries/STM32F10x_StdPeriph_Driver/src/stm32f10x_rcc.c **** 
 549:Libraries/STM32F10x_StdPeriph_Driver/src/stm32f10x_rcc.c **** /**
 550:Libraries/STM32F10x_StdPeriph_Driver/src/stm32f10x_rcc.c ****   * @brief  Enables or disables the PLL3.
 551:Libraries/STM32F10x_StdPeriph_Driver/src/stm32f10x_rcc.c ****   * @note   This function applies only to STM32 Connectivity line devices.
 552:Libraries/STM32F10x_StdPeriph_Driver/src/stm32f10x_rcc.c ****   * @param  NewState: new state of the PLL3. This parameter can be: ENABLE or DISABLE.
 553:Libraries/STM32F10x_StdPeriph_Driver/src/stm32f10x_rcc.c ****   * @retval None
 554:Libraries/STM32F10x_StdPeriph_Driver/src/stm32f10x_rcc.c ****   */
 555:Libraries/STM32F10x_StdPeriph_Driver/src/stm32f10x_rcc.c **** void RCC_PLL3Cmd(FunctionalState NewState)
 556:Libraries/STM32F10x_StdPeriph_Driver/src/stm32f10x_rcc.c **** {
 557:Libraries/STM32F10x_StdPeriph_Driver/src/stm32f10x_rcc.c ****   /* Check the parameters */
 558:Libraries/STM32F10x_StdPeriph_Driver/src/stm32f10x_rcc.c **** 
 559:Libraries/STM32F10x_StdPeriph_Driver/src/stm32f10x_rcc.c ****   assert_param(IS_FUNCTIONAL_STATE(NewState));
 560:Libraries/STM32F10x_StdPeriph_Driver/src/stm32f10x_rcc.c ****   *(__IO uint32_t *) CR_PLL3ON_BB = (uint32_t)NewState;
 561:Libraries/STM32F10x_StdPeriph_Driver/src/stm32f10x_rcc.c **** }
 562:Libraries/STM32F10x_StdPeriph_Driver/src/stm32f10x_rcc.c **** #endif /* STM32F10X_CL */
 563:Libraries/STM32F10x_StdPeriph_Driver/src/stm32f10x_rcc.c **** 
 564:Libraries/STM32F10x_StdPeriph_Driver/src/stm32f10x_rcc.c **** /**
 565:Libraries/STM32F10x_StdPeriph_Driver/src/stm32f10x_rcc.c ****   * @brief  Configures the system clock (SYSCLK).
 566:Libraries/STM32F10x_StdPeriph_Driver/src/stm32f10x_rcc.c ****   * @param  RCC_SYSCLKSource: specifies the clock source used as system clock.
 567:Libraries/STM32F10x_StdPeriph_Driver/src/stm32f10x_rcc.c ****   *   This parameter can be one of the following values:
 568:Libraries/STM32F10x_StdPeriph_Driver/src/stm32f10x_rcc.c ****   *     @arg RCC_SYSCLKSource_HSI: HSI selected as system clock
 569:Libraries/STM32F10x_StdPeriph_Driver/src/stm32f10x_rcc.c ****   *     @arg RCC_SYSCLKSource_HSE: HSE selected as system clock
 570:Libraries/STM32F10x_StdPeriph_Driver/src/stm32f10x_rcc.c ****   *     @arg RCC_SYSCLKSource_PLLCLK: PLL selected as system clock
 571:Libraries/STM32F10x_StdPeriph_Driver/src/stm32f10x_rcc.c ****   * @retval None
 572:Libraries/STM32F10x_StdPeriph_Driver/src/stm32f10x_rcc.c ****   */
 573:Libraries/STM32F10x_StdPeriph_Driver/src/stm32f10x_rcc.c **** void RCC_SYSCLKConfig(uint32_t RCC_SYSCLKSource)
 574:Libraries/STM32F10x_StdPeriph_Driver/src/stm32f10x_rcc.c **** {
 245              		.loc 1 574 0
 246              		.cfi_startproc
 247              		@ args = 0, pretend = 0, frame = 0
 248              		@ frame_needed = 0, uses_anonymous_args = 0
 249              		@ link register save eliminated.
 250              	.LVL12:
 575:Libraries/STM32F10x_StdPeriph_Driver/src/stm32f10x_rcc.c ****   uint32_t tmpreg = 0;
 576:Libraries/STM32F10x_StdPeriph_Driver/src/stm32f10x_rcc.c ****   /* Check the parameters */
 577:Libraries/STM32F10x_StdPeriph_Driver/src/stm32f10x_rcc.c ****   assert_param(IS_RCC_SYSCLK_SOURCE(RCC_SYSCLKSource));
 578:Libraries/STM32F10x_StdPeriph_Driver/src/stm32f10x_rcc.c ****   tmpreg = RCC->CFGR;
 251              		.loc 1 578 0
 252 0000 034A     		ldr	r2, .L25
 253 0002 5368     		ldr	r3, [r2, #4]
 254              	.LVL13:
 579:Libraries/STM32F10x_StdPeriph_Driver/src/stm32f10x_rcc.c ****   /* Clear SW[1:0] bits */
 580:Libraries/STM32F10x_StdPeriph_Driver/src/stm32f10x_rcc.c ****   tmpreg &= CFGR_SW_Mask;
 255              		.loc 1 580 0
 256 0004 23F00303 		bic	r3, r3, #3
 257              	.LVL14:
 581:Libraries/STM32F10x_StdPeriph_Driver/src/stm32f10x_rcc.c ****   /* Set SW[1:0] bits according to RCC_SYSCLKSource value */
 582:Libraries/STM32F10x_StdPeriph_Driver/src/stm32f10x_rcc.c ****   tmpreg |= RCC_SYSCLKSource;
 258              		.loc 1 582 0
 259 0008 1843     		orrs	r0, r0, r3
 260              	.LVL15:
 583:Libraries/STM32F10x_StdPeriph_Driver/src/stm32f10x_rcc.c ****   /* Store the new value */
 584:Libraries/STM32F10x_StdPeriph_Driver/src/stm32f10x_rcc.c ****   RCC->CFGR = tmpreg;
 261              		.loc 1 584 0
 262 000a 5060     		str	r0, [r2, #4]
 263 000c 7047     		bx	lr
 264              	.L26:
 265 000e 00BF     		.align	2
 266              	.L25:
 267 0010 00100240 		.word	1073876992
 268              		.cfi_endproc
 269              	.LFE36:
 271              		.section	.text.RCC_GetSYSCLKSource,"ax",%progbits
 272              		.align	1
 273              		.global	RCC_GetSYSCLKSource
 274              		.thumb
 275              		.thumb_func
 277              	RCC_GetSYSCLKSource:
 278              	.LFB37:
 585:Libraries/STM32F10x_StdPeriph_Driver/src/stm32f10x_rcc.c **** }
 586:Libraries/STM32F10x_StdPeriph_Driver/src/stm32f10x_rcc.c **** 
 587:Libraries/STM32F10x_StdPeriph_Driver/src/stm32f10x_rcc.c **** /**
 588:Libraries/STM32F10x_StdPeriph_Driver/src/stm32f10x_rcc.c ****   * @brief  Returns the clock source used as system clock.
 589:Libraries/STM32F10x_StdPeriph_Driver/src/stm32f10x_rcc.c ****   * @param  None
 590:Libraries/STM32F10x_StdPeriph_Driver/src/stm32f10x_rcc.c ****   * @retval The clock source used as system clock. The returned value can
 591:Libraries/STM32F10x_StdPeriph_Driver/src/stm32f10x_rcc.c ****   *   be one of the following:
 592:Libraries/STM32F10x_StdPeriph_Driver/src/stm32f10x_rcc.c ****   *     - 0x00: HSI used as system clock
 593:Libraries/STM32F10x_StdPeriph_Driver/src/stm32f10x_rcc.c ****   *     - 0x04: HSE used as system clock
 594:Libraries/STM32F10x_StdPeriph_Driver/src/stm32f10x_rcc.c ****   *     - 0x08: PLL used as system clock
 595:Libraries/STM32F10x_StdPeriph_Driver/src/stm32f10x_rcc.c ****   */
 596:Libraries/STM32F10x_StdPeriph_Driver/src/stm32f10x_rcc.c **** uint8_t RCC_GetSYSCLKSource(void)
 597:Libraries/STM32F10x_StdPeriph_Driver/src/stm32f10x_rcc.c **** {
 279              		.loc 1 597 0
 280              		.cfi_startproc
 281              		@ args = 0, pretend = 0, frame = 0
 282              		@ frame_needed = 0, uses_anonymous_args = 0
 283              		@ link register save eliminated.
 598:Libraries/STM32F10x_StdPeriph_Driver/src/stm32f10x_rcc.c ****   return ((uint8_t)(RCC->CFGR & CFGR_SWS_Mask));
 284              		.loc 1 598 0
 285 0000 024B     		ldr	r3, .L28
 286 0002 5868     		ldr	r0, [r3, #4]
 599:Libraries/STM32F10x_StdPeriph_Driver/src/stm32f10x_rcc.c **** }
 287              		.loc 1 599 0
 288 0004 00F00C00 		and	r0, r0, #12
 289 0008 7047     		bx	lr
 290              	.L29:
 291 000a 00BF     		.align	2
 292              	.L28:
 293 000c 00100240 		.word	1073876992
 294              		.cfi_endproc
 295              	.LFE37:
 297              		.section	.text.RCC_HCLKConfig,"ax",%progbits
 298              		.align	1
 299              		.global	RCC_HCLKConfig
 300              		.thumb
 301              		.thumb_func
 303              	RCC_HCLKConfig:
 304              	.LFB38:
 600:Libraries/STM32F10x_StdPeriph_Driver/src/stm32f10x_rcc.c **** 
 601:Libraries/STM32F10x_StdPeriph_Driver/src/stm32f10x_rcc.c **** /**
 602:Libraries/STM32F10x_StdPeriph_Driver/src/stm32f10x_rcc.c ****   * @brief  Configures the AHB clock (HCLK).
 603:Libraries/STM32F10x_StdPeriph_Driver/src/stm32f10x_rcc.c ****   * @param  RCC_SYSCLK: defines the AHB clock divider. This clock is derived from 
 604:Libraries/STM32F10x_StdPeriph_Driver/src/stm32f10x_rcc.c ****   *   the system clock (SYSCLK).
 605:Libraries/STM32F10x_StdPeriph_Driver/src/stm32f10x_rcc.c ****   *   This parameter can be one of the following values:
 606:Libraries/STM32F10x_StdPeriph_Driver/src/stm32f10x_rcc.c ****   *     @arg RCC_SYSCLK_Div1: AHB clock = SYSCLK
 607:Libraries/STM32F10x_StdPeriph_Driver/src/stm32f10x_rcc.c ****   *     @arg RCC_SYSCLK_Div2: AHB clock = SYSCLK/2
 608:Libraries/STM32F10x_StdPeriph_Driver/src/stm32f10x_rcc.c ****   *     @arg RCC_SYSCLK_Div4: AHB clock = SYSCLK/4
 609:Libraries/STM32F10x_StdPeriph_Driver/src/stm32f10x_rcc.c ****   *     @arg RCC_SYSCLK_Div8: AHB clock = SYSCLK/8
 610:Libraries/STM32F10x_StdPeriph_Driver/src/stm32f10x_rcc.c ****   *     @arg RCC_SYSCLK_Div16: AHB clock = SYSCLK/16
 611:Libraries/STM32F10x_StdPeriph_Driver/src/stm32f10x_rcc.c ****   *     @arg RCC_SYSCLK_Div64: AHB clock = SYSCLK/64
 612:Libraries/STM32F10x_StdPeriph_Driver/src/stm32f10x_rcc.c ****   *     @arg RCC_SYSCLK_Div128: AHB clock = SYSCLK/128
 613:Libraries/STM32F10x_StdPeriph_Driver/src/stm32f10x_rcc.c ****   *     @arg RCC_SYSCLK_Div256: AHB clock = SYSCLK/256
 614:Libraries/STM32F10x_StdPeriph_Driver/src/stm32f10x_rcc.c ****   *     @arg RCC_SYSCLK_Div512: AHB clock = SYSCLK/512
 615:Libraries/STM32F10x_StdPeriph_Driver/src/stm32f10x_rcc.c ****   * @retval None
 616:Libraries/STM32F10x_StdPeriph_Driver/src/stm32f10x_rcc.c ****   */
 617:Libraries/STM32F10x_StdPeriph_Driver/src/stm32f10x_rcc.c **** void RCC_HCLKConfig(uint32_t RCC_SYSCLK)
 618:Libraries/STM32F10x_StdPeriph_Driver/src/stm32f10x_rcc.c **** {
 305              		.loc 1 618 0
 306              		.cfi_startproc
 307              		@ args = 0, pretend = 0, frame = 0
 308              		@ frame_needed = 0, uses_anonymous_args = 0
 309              		@ link register save eliminated.
 310              	.LVL16:
 619:Libraries/STM32F10x_StdPeriph_Driver/src/stm32f10x_rcc.c ****   uint32_t tmpreg = 0;
 620:Libraries/STM32F10x_StdPeriph_Driver/src/stm32f10x_rcc.c ****   /* Check the parameters */
 621:Libraries/STM32F10x_StdPeriph_Driver/src/stm32f10x_rcc.c ****   assert_param(IS_RCC_HCLK(RCC_SYSCLK));
 622:Libraries/STM32F10x_StdPeriph_Driver/src/stm32f10x_rcc.c ****   tmpreg = RCC->CFGR;
 311              		.loc 1 622 0
 312 0000 034A     		ldr	r2, .L31
 313 0002 5368     		ldr	r3, [r2, #4]
 314              	.LVL17:
 623:Libraries/STM32F10x_StdPeriph_Driver/src/stm32f10x_rcc.c ****   /* Clear HPRE[3:0] bits */
 624:Libraries/STM32F10x_StdPeriph_Driver/src/stm32f10x_rcc.c ****   tmpreg &= CFGR_HPRE_Reset_Mask;
 315              		.loc 1 624 0
 316 0004 23F0F003 		bic	r3, r3, #240
 317              	.LVL18:
 625:Libraries/STM32F10x_StdPeriph_Driver/src/stm32f10x_rcc.c ****   /* Set HPRE[3:0] bits according to RCC_SYSCLK value */
 626:Libraries/STM32F10x_StdPeriph_Driver/src/stm32f10x_rcc.c ****   tmpreg |= RCC_SYSCLK;
 318              		.loc 1 626 0
 319 0008 1843     		orrs	r0, r0, r3
 320              	.LVL19:
 627:Libraries/STM32F10x_StdPeriph_Driver/src/stm32f10x_rcc.c ****   /* Store the new value */
 628:Libraries/STM32F10x_StdPeriph_Driver/src/stm32f10x_rcc.c ****   RCC->CFGR = tmpreg;
 321              		.loc 1 628 0
 322 000a 5060     		str	r0, [r2, #4]
 323 000c 7047     		bx	lr
 324              	.L32:
 325 000e 00BF     		.align	2
 326              	.L31:
 327 0010 00100240 		.word	1073876992
 328              		.cfi_endproc
 329              	.LFE38:
 331              		.section	.text.RCC_PCLK1Config,"ax",%progbits
 332              		.align	1
 333              		.global	RCC_PCLK1Config
 334              		.thumb
 335              		.thumb_func
 337              	RCC_PCLK1Config:
 338              	.LFB39:
 629:Libraries/STM32F10x_StdPeriph_Driver/src/stm32f10x_rcc.c **** }
 630:Libraries/STM32F10x_StdPeriph_Driver/src/stm32f10x_rcc.c **** 
 631:Libraries/STM32F10x_StdPeriph_Driver/src/stm32f10x_rcc.c **** /**
 632:Libraries/STM32F10x_StdPeriph_Driver/src/stm32f10x_rcc.c ****   * @brief  Configures the Low Speed APB clock (PCLK1).
 633:Libraries/STM32F10x_StdPeriph_Driver/src/stm32f10x_rcc.c ****   * @param  RCC_HCLK: defines the APB1 clock divider. This clock is derived from 
 634:Libraries/STM32F10x_StdPeriph_Driver/src/stm32f10x_rcc.c ****   *   the AHB clock (HCLK).
 635:Libraries/STM32F10x_StdPeriph_Driver/src/stm32f10x_rcc.c ****   *   This parameter can be one of the following values:
 636:Libraries/STM32F10x_StdPeriph_Driver/src/stm32f10x_rcc.c ****   *     @arg RCC_HCLK_Div1: APB1 clock = HCLK
 637:Libraries/STM32F10x_StdPeriph_Driver/src/stm32f10x_rcc.c ****   *     @arg RCC_HCLK_Div2: APB1 clock = HCLK/2
 638:Libraries/STM32F10x_StdPeriph_Driver/src/stm32f10x_rcc.c ****   *     @arg RCC_HCLK_Div4: APB1 clock = HCLK/4
 639:Libraries/STM32F10x_StdPeriph_Driver/src/stm32f10x_rcc.c ****   *     @arg RCC_HCLK_Div8: APB1 clock = HCLK/8
 640:Libraries/STM32F10x_StdPeriph_Driver/src/stm32f10x_rcc.c ****   *     @arg RCC_HCLK_Div16: APB1 clock = HCLK/16
 641:Libraries/STM32F10x_StdPeriph_Driver/src/stm32f10x_rcc.c ****   * @retval None
 642:Libraries/STM32F10x_StdPeriph_Driver/src/stm32f10x_rcc.c ****   */
 643:Libraries/STM32F10x_StdPeriph_Driver/src/stm32f10x_rcc.c **** void RCC_PCLK1Config(uint32_t RCC_HCLK)
 644:Libraries/STM32F10x_StdPeriph_Driver/src/stm32f10x_rcc.c **** {
 339              		.loc 1 644 0
 340              		.cfi_startproc
 341              		@ args = 0, pretend = 0, frame = 0
 342              		@ frame_needed = 0, uses_anonymous_args = 0
 343              		@ link register save eliminated.
 344              	.LVL20:
 645:Libraries/STM32F10x_StdPeriph_Driver/src/stm32f10x_rcc.c ****   uint32_t tmpreg = 0;
 646:Libraries/STM32F10x_StdPeriph_Driver/src/stm32f10x_rcc.c ****   /* Check the parameters */
 647:Libraries/STM32F10x_StdPeriph_Driver/src/stm32f10x_rcc.c ****   assert_param(IS_RCC_PCLK(RCC_HCLK));
 648:Libraries/STM32F10x_StdPeriph_Driver/src/stm32f10x_rcc.c ****   tmpreg = RCC->CFGR;
 345              		.loc 1 648 0
 346 0000 034A     		ldr	r2, .L34
 347 0002 5368     		ldr	r3, [r2, #4]
 348              	.LVL21:
 649:Libraries/STM32F10x_StdPeriph_Driver/src/stm32f10x_rcc.c ****   /* Clear PPRE1[2:0] bits */
 650:Libraries/STM32F10x_StdPeriph_Driver/src/stm32f10x_rcc.c ****   tmpreg &= CFGR_PPRE1_Reset_Mask;
 349              		.loc 1 650 0
 350 0004 23F4E063 		bic	r3, r3, #1792
 351              	.LVL22:
 651:Libraries/STM32F10x_StdPeriph_Driver/src/stm32f10x_rcc.c ****   /* Set PPRE1[2:0] bits according to RCC_HCLK value */
 652:Libraries/STM32F10x_StdPeriph_Driver/src/stm32f10x_rcc.c ****   tmpreg |= RCC_HCLK;
 352              		.loc 1 652 0
 353 0008 1843     		orrs	r0, r0, r3
 354              	.LVL23:
 653:Libraries/STM32F10x_StdPeriph_Driver/src/stm32f10x_rcc.c ****   /* Store the new value */
 654:Libraries/STM32F10x_StdPeriph_Driver/src/stm32f10x_rcc.c ****   RCC->CFGR = tmpreg;
 355              		.loc 1 654 0
 356 000a 5060     		str	r0, [r2, #4]
 357 000c 7047     		bx	lr
 358              	.L35:
 359 000e 00BF     		.align	2
 360              	.L34:
 361 0010 00100240 		.word	1073876992
 362              		.cfi_endproc
 363              	.LFE39:
 365              		.section	.text.RCC_PCLK2Config,"ax",%progbits
 366              		.align	1
 367              		.global	RCC_PCLK2Config
 368              		.thumb
 369              		.thumb_func
 371              	RCC_PCLK2Config:
 372              	.LFB40:
 655:Libraries/STM32F10x_StdPeriph_Driver/src/stm32f10x_rcc.c **** }
 656:Libraries/STM32F10x_StdPeriph_Driver/src/stm32f10x_rcc.c **** 
 657:Libraries/STM32F10x_StdPeriph_Driver/src/stm32f10x_rcc.c **** /**
 658:Libraries/STM32F10x_StdPeriph_Driver/src/stm32f10x_rcc.c ****   * @brief  Configures the High Speed APB clock (PCLK2).
 659:Libraries/STM32F10x_StdPeriph_Driver/src/stm32f10x_rcc.c ****   * @param  RCC_HCLK: defines the APB2 clock divider. This clock is derived from 
 660:Libraries/STM32F10x_StdPeriph_Driver/src/stm32f10x_rcc.c ****   *   the AHB clock (HCLK).
 661:Libraries/STM32F10x_StdPeriph_Driver/src/stm32f10x_rcc.c ****   *   This parameter can be one of the following values:
 662:Libraries/STM32F10x_StdPeriph_Driver/src/stm32f10x_rcc.c ****   *     @arg RCC_HCLK_Div1: APB2 clock = HCLK
 663:Libraries/STM32F10x_StdPeriph_Driver/src/stm32f10x_rcc.c ****   *     @arg RCC_HCLK_Div2: APB2 clock = HCLK/2
 664:Libraries/STM32F10x_StdPeriph_Driver/src/stm32f10x_rcc.c ****   *     @arg RCC_HCLK_Div4: APB2 clock = HCLK/4
 665:Libraries/STM32F10x_StdPeriph_Driver/src/stm32f10x_rcc.c ****   *     @arg RCC_HCLK_Div8: APB2 clock = HCLK/8
 666:Libraries/STM32F10x_StdPeriph_Driver/src/stm32f10x_rcc.c ****   *     @arg RCC_HCLK_Div16: APB2 clock = HCLK/16
 667:Libraries/STM32F10x_StdPeriph_Driver/src/stm32f10x_rcc.c ****   * @retval None
 668:Libraries/STM32F10x_StdPeriph_Driver/src/stm32f10x_rcc.c ****   */
 669:Libraries/STM32F10x_StdPeriph_Driver/src/stm32f10x_rcc.c **** void RCC_PCLK2Config(uint32_t RCC_HCLK)
 670:Libraries/STM32F10x_StdPeriph_Driver/src/stm32f10x_rcc.c **** {
 373              		.loc 1 670 0
 374              		.cfi_startproc
 375              		@ args = 0, pretend = 0, frame = 0
 376              		@ frame_needed = 0, uses_anonymous_args = 0
 377              		@ link register save eliminated.
 378              	.LVL24:
 671:Libraries/STM32F10x_StdPeriph_Driver/src/stm32f10x_rcc.c ****   uint32_t tmpreg = 0;
 672:Libraries/STM32F10x_StdPeriph_Driver/src/stm32f10x_rcc.c ****   /* Check the parameters */
 673:Libraries/STM32F10x_StdPeriph_Driver/src/stm32f10x_rcc.c ****   assert_param(IS_RCC_PCLK(RCC_HCLK));
 674:Libraries/STM32F10x_StdPeriph_Driver/src/stm32f10x_rcc.c ****   tmpreg = RCC->CFGR;
 379              		.loc 1 674 0
 380 0000 034A     		ldr	r2, .L37
 381 0002 5368     		ldr	r3, [r2, #4]
 382              	.LVL25:
 675:Libraries/STM32F10x_StdPeriph_Driver/src/stm32f10x_rcc.c ****   /* Clear PPRE2[2:0] bits */
 676:Libraries/STM32F10x_StdPeriph_Driver/src/stm32f10x_rcc.c ****   tmpreg &= CFGR_PPRE2_Reset_Mask;
 383              		.loc 1 676 0
 384 0004 23F46053 		bic	r3, r3, #14336
 385              	.LVL26:
 677:Libraries/STM32F10x_StdPeriph_Driver/src/stm32f10x_rcc.c ****   /* Set PPRE2[2:0] bits according to RCC_HCLK value */
 678:Libraries/STM32F10x_StdPeriph_Driver/src/stm32f10x_rcc.c ****   tmpreg |= RCC_HCLK << 3;
 386              		.loc 1 678 0
 387 0008 43EAC000 		orr	r0, r3, r0, lsl #3
 388              	.LVL27:
 679:Libraries/STM32F10x_StdPeriph_Driver/src/stm32f10x_rcc.c ****   /* Store the new value */
 680:Libraries/STM32F10x_StdPeriph_Driver/src/stm32f10x_rcc.c ****   RCC->CFGR = tmpreg;
 389              		.loc 1 680 0
 390 000c 5060     		str	r0, [r2, #4]
 391 000e 7047     		bx	lr
 392              	.L38:
 393              		.align	2
 394              	.L37:
 395 0010 00100240 		.word	1073876992
 396              		.cfi_endproc
 397              	.LFE40:
 399              		.section	.text.RCC_ITConfig,"ax",%progbits
 400              		.align	1
 401              		.global	RCC_ITConfig
 402              		.thumb
 403              		.thumb_func
 405              	RCC_ITConfig:
 406              	.LFB41:
 681:Libraries/STM32F10x_StdPeriph_Driver/src/stm32f10x_rcc.c **** }
 682:Libraries/STM32F10x_StdPeriph_Driver/src/stm32f10x_rcc.c **** 
 683:Libraries/STM32F10x_StdPeriph_Driver/src/stm32f10x_rcc.c **** /**
 684:Libraries/STM32F10x_StdPeriph_Driver/src/stm32f10x_rcc.c ****   * @brief  Enables or disables the specified RCC interrupts.
 685:Libraries/STM32F10x_StdPeriph_Driver/src/stm32f10x_rcc.c ****   * @param  RCC_IT: specifies the RCC interrupt sources to be enabled or disabled.
 686:Libraries/STM32F10x_StdPeriph_Driver/src/stm32f10x_rcc.c ****   * 
 687:Libraries/STM32F10x_StdPeriph_Driver/src/stm32f10x_rcc.c ****   *   For @b STM32_Connectivity_line_devices, this parameter can be any combination
 688:Libraries/STM32F10x_StdPeriph_Driver/src/stm32f10x_rcc.c ****   *   of the following values        
 689:Libraries/STM32F10x_StdPeriph_Driver/src/stm32f10x_rcc.c ****   *     @arg RCC_IT_LSIRDY: LSI ready interrupt
 690:Libraries/STM32F10x_StdPeriph_Driver/src/stm32f10x_rcc.c ****   *     @arg RCC_IT_LSERDY: LSE ready interrupt
 691:Libraries/STM32F10x_StdPeriph_Driver/src/stm32f10x_rcc.c ****   *     @arg RCC_IT_HSIRDY: HSI ready interrupt
 692:Libraries/STM32F10x_StdPeriph_Driver/src/stm32f10x_rcc.c ****   *     @arg RCC_IT_HSERDY: HSE ready interrupt
 693:Libraries/STM32F10x_StdPeriph_Driver/src/stm32f10x_rcc.c ****   *     @arg RCC_IT_PLLRDY: PLL ready interrupt
 694:Libraries/STM32F10x_StdPeriph_Driver/src/stm32f10x_rcc.c ****   *     @arg RCC_IT_PLL2RDY: PLL2 ready interrupt
 695:Libraries/STM32F10x_StdPeriph_Driver/src/stm32f10x_rcc.c ****   *     @arg RCC_IT_PLL3RDY: PLL3 ready interrupt
 696:Libraries/STM32F10x_StdPeriph_Driver/src/stm32f10x_rcc.c ****   * 
 697:Libraries/STM32F10x_StdPeriph_Driver/src/stm32f10x_rcc.c ****   *   For @b other_STM32_devices, this parameter can be any combination of the 
 698:Libraries/STM32F10x_StdPeriph_Driver/src/stm32f10x_rcc.c ****   *   following values        
 699:Libraries/STM32F10x_StdPeriph_Driver/src/stm32f10x_rcc.c ****   *     @arg RCC_IT_LSIRDY: LSI ready interrupt
 700:Libraries/STM32F10x_StdPeriph_Driver/src/stm32f10x_rcc.c ****   *     @arg RCC_IT_LSERDY: LSE ready interrupt
 701:Libraries/STM32F10x_StdPeriph_Driver/src/stm32f10x_rcc.c ****   *     @arg RCC_IT_HSIRDY: HSI ready interrupt
 702:Libraries/STM32F10x_StdPeriph_Driver/src/stm32f10x_rcc.c ****   *     @arg RCC_IT_HSERDY: HSE ready interrupt
 703:Libraries/STM32F10x_StdPeriph_Driver/src/stm32f10x_rcc.c ****   *     @arg RCC_IT_PLLRDY: PLL ready interrupt
 704:Libraries/STM32F10x_StdPeriph_Driver/src/stm32f10x_rcc.c ****   *       
 705:Libraries/STM32F10x_StdPeriph_Driver/src/stm32f10x_rcc.c ****   * @param  NewState: new state of the specified RCC interrupts.
 706:Libraries/STM32F10x_StdPeriph_Driver/src/stm32f10x_rcc.c ****   *   This parameter can be: ENABLE or DISABLE.
 707:Libraries/STM32F10x_StdPeriph_Driver/src/stm32f10x_rcc.c ****   * @retval None
 708:Libraries/STM32F10x_StdPeriph_Driver/src/stm32f10x_rcc.c ****   */
 709:Libraries/STM32F10x_StdPeriph_Driver/src/stm32f10x_rcc.c **** void RCC_ITConfig(uint8_t RCC_IT, FunctionalState NewState)
 710:Libraries/STM32F10x_StdPeriph_Driver/src/stm32f10x_rcc.c **** {
 407              		.loc 1 710 0
 408              		.cfi_startproc
 409              		@ args = 0, pretend = 0, frame = 0
 410              		@ frame_needed = 0, uses_anonymous_args = 0
 411              		@ link register save eliminated.
 412              	.LVL28:
 413 0000 044B     		ldr	r3, .L43
 711:Libraries/STM32F10x_StdPeriph_Driver/src/stm32f10x_rcc.c ****   /* Check the parameters */
 712:Libraries/STM32F10x_StdPeriph_Driver/src/stm32f10x_rcc.c ****   assert_param(IS_RCC_IT(RCC_IT));
 713:Libraries/STM32F10x_StdPeriph_Driver/src/stm32f10x_rcc.c ****   assert_param(IS_FUNCTIONAL_STATE(NewState));
 714:Libraries/STM32F10x_StdPeriph_Driver/src/stm32f10x_rcc.c ****   if (NewState != DISABLE)
 715:Libraries/STM32F10x_StdPeriph_Driver/src/stm32f10x_rcc.c ****   {
 716:Libraries/STM32F10x_StdPeriph_Driver/src/stm32f10x_rcc.c ****     /* Perform Byte access to RCC_CIR bits to enable the selected interrupts */
 717:Libraries/STM32F10x_StdPeriph_Driver/src/stm32f10x_rcc.c ****     *(__IO uint8_t *) CIR_BYTE2_ADDRESS |= RCC_IT;
 414              		.loc 1 717 0
 415 0002 1A78     		ldrb	r2, [r3]	@ zero_extendqisi2
 714:Libraries/STM32F10x_StdPeriph_Driver/src/stm32f10x_rcc.c ****   {
 416              		.loc 1 714 0
 417 0004 09B1     		cbz	r1, .L40
 418              		.loc 1 717 0
 419 0006 1043     		orrs	r0, r0, r2
 420              	.LVL29:
 421 0008 01E0     		b	.L42
 422              	.LVL30:
 423              	.L40:
 718:Libraries/STM32F10x_StdPeriph_Driver/src/stm32f10x_rcc.c ****   }
 719:Libraries/STM32F10x_StdPeriph_Driver/src/stm32f10x_rcc.c ****   else
 720:Libraries/STM32F10x_StdPeriph_Driver/src/stm32f10x_rcc.c ****   {
 721:Libraries/STM32F10x_StdPeriph_Driver/src/stm32f10x_rcc.c ****     /* Perform Byte access to RCC_CIR bits to disable the selected interrupts */
 722:Libraries/STM32F10x_StdPeriph_Driver/src/stm32f10x_rcc.c ****     *(__IO uint8_t *) CIR_BYTE2_ADDRESS &= (uint8_t)~RCC_IT;
 424              		.loc 1 722 0
 425 000a 22EA0000 		bic	r0, r2, r0
 426              	.LVL31:
 427              	.L42:
 428 000e 1870     		strb	r0, [r3]
 429 0010 7047     		bx	lr
 430              	.L44:
 431 0012 00BF     		.align	2
 432              	.L43:
 433 0014 09100240 		.word	1073877001
 434              		.cfi_endproc
 435              	.LFE41:
 437              		.section	.text.RCC_USBCLKConfig,"ax",%progbits
 438              		.align	1
 439              		.global	RCC_USBCLKConfig
 440              		.thumb
 441              		.thumb_func
 443              	RCC_USBCLKConfig:
 444              	.LFB42:
 723:Libraries/STM32F10x_StdPeriph_Driver/src/stm32f10x_rcc.c ****   }
 724:Libraries/STM32F10x_StdPeriph_Driver/src/stm32f10x_rcc.c **** }
 725:Libraries/STM32F10x_StdPeriph_Driver/src/stm32f10x_rcc.c **** 
 726:Libraries/STM32F10x_StdPeriph_Driver/src/stm32f10x_rcc.c **** #ifndef STM32F10X_CL
 727:Libraries/STM32F10x_StdPeriph_Driver/src/stm32f10x_rcc.c **** /**
 728:Libraries/STM32F10x_StdPeriph_Driver/src/stm32f10x_rcc.c ****   * @brief  Configures the USB clock (USBCLK).
 729:Libraries/STM32F10x_StdPeriph_Driver/src/stm32f10x_rcc.c ****   * @param  RCC_USBCLKSource: specifies the USB clock source. This clock is 
 730:Libraries/STM32F10x_StdPeriph_Driver/src/stm32f10x_rcc.c ****   *   derived from the PLL output.
 731:Libraries/STM32F10x_StdPeriph_Driver/src/stm32f10x_rcc.c ****   *   This parameter can be one of the following values:
 732:Libraries/STM32F10x_StdPeriph_Driver/src/stm32f10x_rcc.c ****   *     @arg RCC_USBCLKSource_PLLCLK_1Div5: PLL clock divided by 1,5 selected as USB 
 733:Libraries/STM32F10x_StdPeriph_Driver/src/stm32f10x_rcc.c ****   *                                     clock source
 734:Libraries/STM32F10x_StdPeriph_Driver/src/stm32f10x_rcc.c ****   *     @arg RCC_USBCLKSource_PLLCLK_Div1: PLL clock selected as USB clock source
 735:Libraries/STM32F10x_StdPeriph_Driver/src/stm32f10x_rcc.c ****   * @retval None
 736:Libraries/STM32F10x_StdPeriph_Driver/src/stm32f10x_rcc.c ****   */
 737:Libraries/STM32F10x_StdPeriph_Driver/src/stm32f10x_rcc.c **** void RCC_USBCLKConfig(uint32_t RCC_USBCLKSource)
 738:Libraries/STM32F10x_StdPeriph_Driver/src/stm32f10x_rcc.c **** {
 445              		.loc 1 738 0
 446              		.cfi_startproc
 447              		@ args = 0, pretend = 0, frame = 0
 448              		@ frame_needed = 0, uses_anonymous_args = 0
 449              		@ link register save eliminated.
 450              	.LVL32:
 739:Libraries/STM32F10x_StdPeriph_Driver/src/stm32f10x_rcc.c ****   /* Check the parameters */
 740:Libraries/STM32F10x_StdPeriph_Driver/src/stm32f10x_rcc.c ****   assert_param(IS_RCC_USBCLK_SOURCE(RCC_USBCLKSource));
 741:Libraries/STM32F10x_StdPeriph_Driver/src/stm32f10x_rcc.c **** 
 742:Libraries/STM32F10x_StdPeriph_Driver/src/stm32f10x_rcc.c ****   *(__IO uint32_t *) CFGR_USBPRE_BB = RCC_USBCLKSource;
 451              		.loc 1 742 0
 452 0000 014B     		ldr	r3, .L46
 453 0002 1860     		str	r0, [r3]
 454 0004 7047     		bx	lr
 455              	.L47:
 456 0006 00BF     		.align	2
 457              	.L46:
 458 0008 D8004242 		.word	1111621848
 459              		.cfi_endproc
 460              	.LFE42:
 462              		.section	.text.RCC_ADCCLKConfig,"ax",%progbits
 463              		.align	1
 464              		.global	RCC_ADCCLKConfig
 465              		.thumb
 466              		.thumb_func
 468              	RCC_ADCCLKConfig:
 469              	.LFB43:
 743:Libraries/STM32F10x_StdPeriph_Driver/src/stm32f10x_rcc.c **** }
 744:Libraries/STM32F10x_StdPeriph_Driver/src/stm32f10x_rcc.c **** #else
 745:Libraries/STM32F10x_StdPeriph_Driver/src/stm32f10x_rcc.c **** /**
 746:Libraries/STM32F10x_StdPeriph_Driver/src/stm32f10x_rcc.c ****   * @brief  Configures the USB OTG FS clock (OTGFSCLK).
 747:Libraries/STM32F10x_StdPeriph_Driver/src/stm32f10x_rcc.c ****   *   This function applies only to STM32 Connectivity line devices.
 748:Libraries/STM32F10x_StdPeriph_Driver/src/stm32f10x_rcc.c ****   * @param  RCC_OTGFSCLKSource: specifies the USB OTG FS clock source.
 749:Libraries/STM32F10x_StdPeriph_Driver/src/stm32f10x_rcc.c ****   *   This clock is derived from the PLL output.
 750:Libraries/STM32F10x_StdPeriph_Driver/src/stm32f10x_rcc.c ****   *   This parameter can be one of the following values:
 751:Libraries/STM32F10x_StdPeriph_Driver/src/stm32f10x_rcc.c ****   *     @arg  RCC_OTGFSCLKSource_PLLVCO_Div3: PLL VCO clock divided by 2 selected as USB OTG FS clo
 752:Libraries/STM32F10x_StdPeriph_Driver/src/stm32f10x_rcc.c ****   *     @arg  RCC_OTGFSCLKSource_PLLVCO_Div2: PLL VCO clock divided by 2 selected as USB OTG FS clo
 753:Libraries/STM32F10x_StdPeriph_Driver/src/stm32f10x_rcc.c ****   * @retval None
 754:Libraries/STM32F10x_StdPeriph_Driver/src/stm32f10x_rcc.c ****   */
 755:Libraries/STM32F10x_StdPeriph_Driver/src/stm32f10x_rcc.c **** void RCC_OTGFSCLKConfig(uint32_t RCC_OTGFSCLKSource)
 756:Libraries/STM32F10x_StdPeriph_Driver/src/stm32f10x_rcc.c **** {
 757:Libraries/STM32F10x_StdPeriph_Driver/src/stm32f10x_rcc.c ****   /* Check the parameters */
 758:Libraries/STM32F10x_StdPeriph_Driver/src/stm32f10x_rcc.c ****   assert_param(IS_RCC_OTGFSCLK_SOURCE(RCC_OTGFSCLKSource));
 759:Libraries/STM32F10x_StdPeriph_Driver/src/stm32f10x_rcc.c **** 
 760:Libraries/STM32F10x_StdPeriph_Driver/src/stm32f10x_rcc.c ****   *(__IO uint32_t *) CFGR_OTGFSPRE_BB = RCC_OTGFSCLKSource;
 761:Libraries/STM32F10x_StdPeriph_Driver/src/stm32f10x_rcc.c **** }
 762:Libraries/STM32F10x_StdPeriph_Driver/src/stm32f10x_rcc.c **** #endif /* STM32F10X_CL */ 
 763:Libraries/STM32F10x_StdPeriph_Driver/src/stm32f10x_rcc.c **** 
 764:Libraries/STM32F10x_StdPeriph_Driver/src/stm32f10x_rcc.c **** /**
 765:Libraries/STM32F10x_StdPeriph_Driver/src/stm32f10x_rcc.c ****   * @brief  Configures the ADC clock (ADCCLK).
 766:Libraries/STM32F10x_StdPeriph_Driver/src/stm32f10x_rcc.c ****   * @param  RCC_PCLK2: defines the ADC clock divider. This clock is derived from 
 767:Libraries/STM32F10x_StdPeriph_Driver/src/stm32f10x_rcc.c ****   *   the APB2 clock (PCLK2).
 768:Libraries/STM32F10x_StdPeriph_Driver/src/stm32f10x_rcc.c ****   *   This parameter can be one of the following values:
 769:Libraries/STM32F10x_StdPeriph_Driver/src/stm32f10x_rcc.c ****   *     @arg RCC_PCLK2_Div2: ADC clock = PCLK2/2
 770:Libraries/STM32F10x_StdPeriph_Driver/src/stm32f10x_rcc.c ****   *     @arg RCC_PCLK2_Div4: ADC clock = PCLK2/4
 771:Libraries/STM32F10x_StdPeriph_Driver/src/stm32f10x_rcc.c ****   *     @arg RCC_PCLK2_Div6: ADC clock = PCLK2/6
 772:Libraries/STM32F10x_StdPeriph_Driver/src/stm32f10x_rcc.c ****   *     @arg RCC_PCLK2_Div8: ADC clock = PCLK2/8
 773:Libraries/STM32F10x_StdPeriph_Driver/src/stm32f10x_rcc.c ****   * @retval None
 774:Libraries/STM32F10x_StdPeriph_Driver/src/stm32f10x_rcc.c ****   */
 775:Libraries/STM32F10x_StdPeriph_Driver/src/stm32f10x_rcc.c **** void RCC_ADCCLKConfig(uint32_t RCC_PCLK2)
 776:Libraries/STM32F10x_StdPeriph_Driver/src/stm32f10x_rcc.c **** {
 470              		.loc 1 776 0
 471              		.cfi_startproc
 472              		@ args = 0, pretend = 0, frame = 0
 473              		@ frame_needed = 0, uses_anonymous_args = 0
 474              		@ link register save eliminated.
 475              	.LVL33:
 777:Libraries/STM32F10x_StdPeriph_Driver/src/stm32f10x_rcc.c ****   uint32_t tmpreg = 0;
 778:Libraries/STM32F10x_StdPeriph_Driver/src/stm32f10x_rcc.c ****   /* Check the parameters */
 779:Libraries/STM32F10x_StdPeriph_Driver/src/stm32f10x_rcc.c ****   assert_param(IS_RCC_ADCCLK(RCC_PCLK2));
 780:Libraries/STM32F10x_StdPeriph_Driver/src/stm32f10x_rcc.c ****   tmpreg = RCC->CFGR;
 476              		.loc 1 780 0
 477 0000 034A     		ldr	r2, .L49
 478 0002 5368     		ldr	r3, [r2, #4]
 479              	.LVL34:
 781:Libraries/STM32F10x_StdPeriph_Driver/src/stm32f10x_rcc.c ****   /* Clear ADCPRE[1:0] bits */
 782:Libraries/STM32F10x_StdPeriph_Driver/src/stm32f10x_rcc.c ****   tmpreg &= CFGR_ADCPRE_Reset_Mask;
 480              		.loc 1 782 0
 481 0004 23F44043 		bic	r3, r3, #49152
 482              	.LVL35:
 783:Libraries/STM32F10x_StdPeriph_Driver/src/stm32f10x_rcc.c ****   /* Set ADCPRE[1:0] bits according to RCC_PCLK2 value */
 784:Libraries/STM32F10x_StdPeriph_Driver/src/stm32f10x_rcc.c ****   tmpreg |= RCC_PCLK2;
 483              		.loc 1 784 0
 484 0008 1843     		orrs	r0, r0, r3
 485              	.LVL36:
 785:Libraries/STM32F10x_StdPeriph_Driver/src/stm32f10x_rcc.c ****   /* Store the new value */
 786:Libraries/STM32F10x_StdPeriph_Driver/src/stm32f10x_rcc.c ****   RCC->CFGR = tmpreg;
 486              		.loc 1 786 0
 487 000a 5060     		str	r0, [r2, #4]
 488 000c 7047     		bx	lr
 489              	.L50:
 490 000e 00BF     		.align	2
 491              	.L49:
 492 0010 00100240 		.word	1073876992
 493              		.cfi_endproc
 494              	.LFE43:
 496              		.section	.text.RCC_LSEConfig,"ax",%progbits
 497              		.align	1
 498              		.global	RCC_LSEConfig
 499              		.thumb
 500              		.thumb_func
 502              	RCC_LSEConfig:
 503              	.LFB44:
 787:Libraries/STM32F10x_StdPeriph_Driver/src/stm32f10x_rcc.c **** }
 788:Libraries/STM32F10x_StdPeriph_Driver/src/stm32f10x_rcc.c **** 
 789:Libraries/STM32F10x_StdPeriph_Driver/src/stm32f10x_rcc.c **** #ifdef STM32F10X_CL
 790:Libraries/STM32F10x_StdPeriph_Driver/src/stm32f10x_rcc.c **** /**
 791:Libraries/STM32F10x_StdPeriph_Driver/src/stm32f10x_rcc.c ****   * @brief  Configures the I2S2 clock source(I2S2CLK).
 792:Libraries/STM32F10x_StdPeriph_Driver/src/stm32f10x_rcc.c ****   * @note
 793:Libraries/STM32F10x_StdPeriph_Driver/src/stm32f10x_rcc.c ****   *   - This function must be called before enabling I2S2 APB clock.
 794:Libraries/STM32F10x_StdPeriph_Driver/src/stm32f10x_rcc.c ****   *   - This function applies only to STM32 Connectivity line devices.
 795:Libraries/STM32F10x_StdPeriph_Driver/src/stm32f10x_rcc.c ****   * @param  RCC_I2S2CLKSource: specifies the I2S2 clock source.
 796:Libraries/STM32F10x_StdPeriph_Driver/src/stm32f10x_rcc.c ****   *   This parameter can be one of the following values:
 797:Libraries/STM32F10x_StdPeriph_Driver/src/stm32f10x_rcc.c ****   *     @arg RCC_I2S2CLKSource_SYSCLK: system clock selected as I2S2 clock entry
 798:Libraries/STM32F10x_StdPeriph_Driver/src/stm32f10x_rcc.c ****   *     @arg RCC_I2S2CLKSource_PLL3_VCO: PLL3 VCO clock selected as I2S2 clock entry
 799:Libraries/STM32F10x_StdPeriph_Driver/src/stm32f10x_rcc.c ****   * @retval None
 800:Libraries/STM32F10x_StdPeriph_Driver/src/stm32f10x_rcc.c ****   */
 801:Libraries/STM32F10x_StdPeriph_Driver/src/stm32f10x_rcc.c **** void RCC_I2S2CLKConfig(uint32_t RCC_I2S2CLKSource)
 802:Libraries/STM32F10x_StdPeriph_Driver/src/stm32f10x_rcc.c **** {
 803:Libraries/STM32F10x_StdPeriph_Driver/src/stm32f10x_rcc.c ****   /* Check the parameters */
 804:Libraries/STM32F10x_StdPeriph_Driver/src/stm32f10x_rcc.c ****   assert_param(IS_RCC_I2S2CLK_SOURCE(RCC_I2S2CLKSource));
 805:Libraries/STM32F10x_StdPeriph_Driver/src/stm32f10x_rcc.c **** 
 806:Libraries/STM32F10x_StdPeriph_Driver/src/stm32f10x_rcc.c ****   *(__IO uint32_t *) CFGR2_I2S2SRC_BB = RCC_I2S2CLKSource;
 807:Libraries/STM32F10x_StdPeriph_Driver/src/stm32f10x_rcc.c **** }
 808:Libraries/STM32F10x_StdPeriph_Driver/src/stm32f10x_rcc.c **** 
 809:Libraries/STM32F10x_StdPeriph_Driver/src/stm32f10x_rcc.c **** /**
 810:Libraries/STM32F10x_StdPeriph_Driver/src/stm32f10x_rcc.c ****   * @brief  Configures the I2S3 clock source(I2S2CLK).
 811:Libraries/STM32F10x_StdPeriph_Driver/src/stm32f10x_rcc.c ****   * @note
 812:Libraries/STM32F10x_StdPeriph_Driver/src/stm32f10x_rcc.c ****   *   - This function must be called before enabling I2S3 APB clock.
 813:Libraries/STM32F10x_StdPeriph_Driver/src/stm32f10x_rcc.c ****   *   - This function applies only to STM32 Connectivity line devices.
 814:Libraries/STM32F10x_StdPeriph_Driver/src/stm32f10x_rcc.c ****   * @param  RCC_I2S3CLKSource: specifies the I2S3 clock source.
 815:Libraries/STM32F10x_StdPeriph_Driver/src/stm32f10x_rcc.c ****   *   This parameter can be one of the following values:
 816:Libraries/STM32F10x_StdPeriph_Driver/src/stm32f10x_rcc.c ****   *     @arg RCC_I2S3CLKSource_SYSCLK: system clock selected as I2S3 clock entry
 817:Libraries/STM32F10x_StdPeriph_Driver/src/stm32f10x_rcc.c ****   *     @arg RCC_I2S3CLKSource_PLL3_VCO: PLL3 VCO clock selected as I2S3 clock entry
 818:Libraries/STM32F10x_StdPeriph_Driver/src/stm32f10x_rcc.c ****   * @retval None
 819:Libraries/STM32F10x_StdPeriph_Driver/src/stm32f10x_rcc.c ****   */
 820:Libraries/STM32F10x_StdPeriph_Driver/src/stm32f10x_rcc.c **** void RCC_I2S3CLKConfig(uint32_t RCC_I2S3CLKSource)
 821:Libraries/STM32F10x_StdPeriph_Driver/src/stm32f10x_rcc.c **** {
 822:Libraries/STM32F10x_StdPeriph_Driver/src/stm32f10x_rcc.c ****   /* Check the parameters */
 823:Libraries/STM32F10x_StdPeriph_Driver/src/stm32f10x_rcc.c ****   assert_param(IS_RCC_I2S3CLK_SOURCE(RCC_I2S3CLKSource));
 824:Libraries/STM32F10x_StdPeriph_Driver/src/stm32f10x_rcc.c **** 
 825:Libraries/STM32F10x_StdPeriph_Driver/src/stm32f10x_rcc.c ****   *(__IO uint32_t *) CFGR2_I2S3SRC_BB = RCC_I2S3CLKSource;
 826:Libraries/STM32F10x_StdPeriph_Driver/src/stm32f10x_rcc.c **** }
 827:Libraries/STM32F10x_StdPeriph_Driver/src/stm32f10x_rcc.c **** #endif /* STM32F10X_CL */
 828:Libraries/STM32F10x_StdPeriph_Driver/src/stm32f10x_rcc.c **** 
 829:Libraries/STM32F10x_StdPeriph_Driver/src/stm32f10x_rcc.c **** /**
 830:Libraries/STM32F10x_StdPeriph_Driver/src/stm32f10x_rcc.c ****   * @brief  Configures the External Low Speed oscillator (LSE).
 831:Libraries/STM32F10x_StdPeriph_Driver/src/stm32f10x_rcc.c ****   * @param  RCC_LSE: specifies the new state of the LSE.
 832:Libraries/STM32F10x_StdPeriph_Driver/src/stm32f10x_rcc.c ****   *   This parameter can be one of the following values:
 833:Libraries/STM32F10x_StdPeriph_Driver/src/stm32f10x_rcc.c ****   *     @arg RCC_LSE_OFF: LSE oscillator OFF
 834:Libraries/STM32F10x_StdPeriph_Driver/src/stm32f10x_rcc.c ****   *     @arg RCC_LSE_ON: LSE oscillator ON
 835:Libraries/STM32F10x_StdPeriph_Driver/src/stm32f10x_rcc.c ****   *     @arg RCC_LSE_Bypass: LSE oscillator bypassed with external clock
 836:Libraries/STM32F10x_StdPeriph_Driver/src/stm32f10x_rcc.c ****   * @retval None
 837:Libraries/STM32F10x_StdPeriph_Driver/src/stm32f10x_rcc.c ****   */
 838:Libraries/STM32F10x_StdPeriph_Driver/src/stm32f10x_rcc.c **** void RCC_LSEConfig(uint8_t RCC_LSE)
 839:Libraries/STM32F10x_StdPeriph_Driver/src/stm32f10x_rcc.c **** {
 504              		.loc 1 839 0
 505              		.cfi_startproc
 506              		@ args = 0, pretend = 0, frame = 0
 507              		@ frame_needed = 0, uses_anonymous_args = 0
 508              		@ link register save eliminated.
 509              	.LVL37:
 840:Libraries/STM32F10x_StdPeriph_Driver/src/stm32f10x_rcc.c ****   /* Check the parameters */
 841:Libraries/STM32F10x_StdPeriph_Driver/src/stm32f10x_rcc.c ****   assert_param(IS_RCC_LSE(RCC_LSE));
 842:Libraries/STM32F10x_StdPeriph_Driver/src/stm32f10x_rcc.c ****   /* Reset LSEON and LSEBYP bits before configuring the LSE ------------------*/
 843:Libraries/STM32F10x_StdPeriph_Driver/src/stm32f10x_rcc.c ****   /* Reset LSEON bit */
 844:Libraries/STM32F10x_StdPeriph_Driver/src/stm32f10x_rcc.c ****   *(__IO uint8_t *) BDCR_ADDRESS = RCC_LSE_OFF;
 510              		.loc 1 844 0
 511 0000 064B     		ldr	r3, .L55
 512 0002 0022     		movs	r2, #0
 845:Libraries/STM32F10x_StdPeriph_Driver/src/stm32f10x_rcc.c ****   /* Reset LSEBYP bit */
 846:Libraries/STM32F10x_StdPeriph_Driver/src/stm32f10x_rcc.c ****   *(__IO uint8_t *) BDCR_ADDRESS = RCC_LSE_OFF;
 847:Libraries/STM32F10x_StdPeriph_Driver/src/stm32f10x_rcc.c ****   /* Configure LSE (RCC_LSE_OFF is already covered by the code section above) */
 848:Libraries/STM32F10x_StdPeriph_Driver/src/stm32f10x_rcc.c ****   switch(RCC_LSE)
 513              		.loc 1 848 0
 514 0004 0128     		cmp	r0, #1
 844:Libraries/STM32F10x_StdPeriph_Driver/src/stm32f10x_rcc.c ****   /* Reset LSEBYP bit */
 515              		.loc 1 844 0
 516 0006 1A70     		strb	r2, [r3]
 846:Libraries/STM32F10x_StdPeriph_Driver/src/stm32f10x_rcc.c ****   /* Configure LSE (RCC_LSE_OFF is already covered by the code section above) */
 517              		.loc 1 846 0
 518 0008 1A70     		strb	r2, [r3]
 519              		.loc 1 848 0
 520 000a 02D0     		beq	.L53
 521 000c 0428     		cmp	r0, #4
 522 000e 02D0     		beq	.L54
 523 0010 7047     		bx	lr
 524              	.L53:
 849:Libraries/STM32F10x_StdPeriph_Driver/src/stm32f10x_rcc.c ****   {
 850:Libraries/STM32F10x_StdPeriph_Driver/src/stm32f10x_rcc.c ****     case RCC_LSE_ON:
 851:Libraries/STM32F10x_StdPeriph_Driver/src/stm32f10x_rcc.c ****       /* Set LSEON bit */
 852:Libraries/STM32F10x_StdPeriph_Driver/src/stm32f10x_rcc.c ****       *(__IO uint8_t *) BDCR_ADDRESS = RCC_LSE_ON;
 525              		.loc 1 852 0
 526 0012 1870     		strb	r0, [r3]
 853:Libraries/STM32F10x_StdPeriph_Driver/src/stm32f10x_rcc.c ****       break;
 527              		.loc 1 853 0
 528 0014 7047     		bx	lr
 529              	.L54:
 854:Libraries/STM32F10x_StdPeriph_Driver/src/stm32f10x_rcc.c ****       
 855:Libraries/STM32F10x_StdPeriph_Driver/src/stm32f10x_rcc.c ****     case RCC_LSE_Bypass:
 856:Libraries/STM32F10x_StdPeriph_Driver/src/stm32f10x_rcc.c ****       /* Set LSEBYP and LSEON bits */
 857:Libraries/STM32F10x_StdPeriph_Driver/src/stm32f10x_rcc.c ****       *(__IO uint8_t *) BDCR_ADDRESS = RCC_LSE_Bypass | RCC_LSE_ON;
 530              		.loc 1 857 0
 531 0016 0522     		movs	r2, #5
 532 0018 1A70     		strb	r2, [r3]
 533 001a 7047     		bx	lr
 534              	.L56:
 535              		.align	2
 536              	.L55:
 537 001c 20100240 		.word	1073877024
 538              		.cfi_endproc
 539              	.LFE44:
 541              		.section	.text.RCC_LSICmd,"ax",%progbits
 542              		.align	1
 543              		.global	RCC_LSICmd
 544              		.thumb
 545              		.thumb_func
 547              	RCC_LSICmd:
 548              	.LFB45:
 858:Libraries/STM32F10x_StdPeriph_Driver/src/stm32f10x_rcc.c ****       break;            
 859:Libraries/STM32F10x_StdPeriph_Driver/src/stm32f10x_rcc.c ****       
 860:Libraries/STM32F10x_StdPeriph_Driver/src/stm32f10x_rcc.c ****     default:
 861:Libraries/STM32F10x_StdPeriph_Driver/src/stm32f10x_rcc.c ****       break;      
 862:Libraries/STM32F10x_StdPeriph_Driver/src/stm32f10x_rcc.c ****   }
 863:Libraries/STM32F10x_StdPeriph_Driver/src/stm32f10x_rcc.c **** }
 864:Libraries/STM32F10x_StdPeriph_Driver/src/stm32f10x_rcc.c **** 
 865:Libraries/STM32F10x_StdPeriph_Driver/src/stm32f10x_rcc.c **** /**
 866:Libraries/STM32F10x_StdPeriph_Driver/src/stm32f10x_rcc.c ****   * @brief  Enables or disables the Internal Low Speed oscillator (LSI).
 867:Libraries/STM32F10x_StdPeriph_Driver/src/stm32f10x_rcc.c ****   * @note   LSI can not be disabled if the IWDG is running.
 868:Libraries/STM32F10x_StdPeriph_Driver/src/stm32f10x_rcc.c ****   * @param  NewState: new state of the LSI. This parameter can be: ENABLE or DISABLE.
 869:Libraries/STM32F10x_StdPeriph_Driver/src/stm32f10x_rcc.c ****   * @retval None
 870:Libraries/STM32F10x_StdPeriph_Driver/src/stm32f10x_rcc.c ****   */
 871:Libraries/STM32F10x_StdPeriph_Driver/src/stm32f10x_rcc.c **** void RCC_LSICmd(FunctionalState NewState)
 872:Libraries/STM32F10x_StdPeriph_Driver/src/stm32f10x_rcc.c **** {
 549              		.loc 1 872 0
 550              		.cfi_startproc
 551              		@ args = 0, pretend = 0, frame = 0
 552              		@ frame_needed = 0, uses_anonymous_args = 0
 553              		@ link register save eliminated.
 554              	.LVL38:
 873:Libraries/STM32F10x_StdPeriph_Driver/src/stm32f10x_rcc.c ****   /* Check the parameters */
 874:Libraries/STM32F10x_StdPeriph_Driver/src/stm32f10x_rcc.c ****   assert_param(IS_FUNCTIONAL_STATE(NewState));
 875:Libraries/STM32F10x_StdPeriph_Driver/src/stm32f10x_rcc.c ****   *(__IO uint32_t *) CSR_LSION_BB = (uint32_t)NewState;
 555              		.loc 1 875 0
 556 0000 014B     		ldr	r3, .L58
 557 0002 1860     		str	r0, [r3]
 558 0004 7047     		bx	lr
 559              	.L59:
 560 0006 00BF     		.align	2
 561              	.L58:
 562 0008 80044242 		.word	1111622784
 563              		.cfi_endproc
 564              	.LFE45:
 566              		.section	.text.RCC_RTCCLKConfig,"ax",%progbits
 567              		.align	1
 568              		.global	RCC_RTCCLKConfig
 569              		.thumb
 570              		.thumb_func
 572              	RCC_RTCCLKConfig:
 573              	.LFB46:
 876:Libraries/STM32F10x_StdPeriph_Driver/src/stm32f10x_rcc.c **** }
 877:Libraries/STM32F10x_StdPeriph_Driver/src/stm32f10x_rcc.c **** 
 878:Libraries/STM32F10x_StdPeriph_Driver/src/stm32f10x_rcc.c **** /**
 879:Libraries/STM32F10x_StdPeriph_Driver/src/stm32f10x_rcc.c ****   * @brief  Configures the RTC clock (RTCCLK).
 880:Libraries/STM32F10x_StdPeriph_Driver/src/stm32f10x_rcc.c ****   * @note   Once the RTC clock is selected it cant be changed unless the Backup domain is reset.
 881:Libraries/STM32F10x_StdPeriph_Driver/src/stm32f10x_rcc.c ****   * @param  RCC_RTCCLKSource: specifies the RTC clock source.
 882:Libraries/STM32F10x_StdPeriph_Driver/src/stm32f10x_rcc.c ****   *   This parameter can be one of the following values:
 883:Libraries/STM32F10x_StdPeriph_Driver/src/stm32f10x_rcc.c ****   *     @arg RCC_RTCCLKSource_LSE: LSE selected as RTC clock
 884:Libraries/STM32F10x_StdPeriph_Driver/src/stm32f10x_rcc.c ****   *     @arg RCC_RTCCLKSource_LSI: LSI selected as RTC clock
 885:Libraries/STM32F10x_StdPeriph_Driver/src/stm32f10x_rcc.c ****   *     @arg RCC_RTCCLKSource_HSE_Div128: HSE clock divided by 128 selected as RTC clock
 886:Libraries/STM32F10x_StdPeriph_Driver/src/stm32f10x_rcc.c ****   * @retval None
 887:Libraries/STM32F10x_StdPeriph_Driver/src/stm32f10x_rcc.c ****   */
 888:Libraries/STM32F10x_StdPeriph_Driver/src/stm32f10x_rcc.c **** void RCC_RTCCLKConfig(uint32_t RCC_RTCCLKSource)
 889:Libraries/STM32F10x_StdPeriph_Driver/src/stm32f10x_rcc.c **** {
 574              		.loc 1 889 0
 575              		.cfi_startproc
 576              		@ args = 0, pretend = 0, frame = 0
 577              		@ frame_needed = 0, uses_anonymous_args = 0
 578              		@ link register save eliminated.
 579              	.LVL39:
 890:Libraries/STM32F10x_StdPeriph_Driver/src/stm32f10x_rcc.c ****   /* Check the parameters */
 891:Libraries/STM32F10x_StdPeriph_Driver/src/stm32f10x_rcc.c ****   assert_param(IS_RCC_RTCCLK_SOURCE(RCC_RTCCLKSource));
 892:Libraries/STM32F10x_StdPeriph_Driver/src/stm32f10x_rcc.c ****   /* Select the RTC clock source */
 893:Libraries/STM32F10x_StdPeriph_Driver/src/stm32f10x_rcc.c ****   RCC->BDCR |= RCC_RTCCLKSource;
 580              		.loc 1 893 0
 581 0000 024A     		ldr	r2, .L61
 582 0002 136A     		ldr	r3, [r2, #32]
 583 0004 1843     		orrs	r0, r0, r3
 584              	.LVL40:
 585 0006 1062     		str	r0, [r2, #32]
 586 0008 7047     		bx	lr
 587              	.L62:
 588 000a 00BF     		.align	2
 589              	.L61:
 590 000c 00100240 		.word	1073876992
 591              		.cfi_endproc
 592              	.LFE46:
 594              		.section	.text.RCC_RTCCLKCmd,"ax",%progbits
 595              		.align	1
 596              		.global	RCC_RTCCLKCmd
 597              		.thumb
 598              		.thumb_func
 600              	RCC_RTCCLKCmd:
 601              	.LFB47:
 894:Libraries/STM32F10x_StdPeriph_Driver/src/stm32f10x_rcc.c **** }
 895:Libraries/STM32F10x_StdPeriph_Driver/src/stm32f10x_rcc.c **** 
 896:Libraries/STM32F10x_StdPeriph_Driver/src/stm32f10x_rcc.c **** /**
 897:Libraries/STM32F10x_StdPeriph_Driver/src/stm32f10x_rcc.c ****   * @brief  Enables or disables the RTC clock.
 898:Libraries/STM32F10x_StdPeriph_Driver/src/stm32f10x_rcc.c ****   * @note   This function must be used only after the RTC clock was selected using the RCC_RTCCLKCo
 899:Libraries/STM32F10x_StdPeriph_Driver/src/stm32f10x_rcc.c ****   * @param  NewState: new state of the RTC clock. This parameter can be: ENABLE or DISABLE.
 900:Libraries/STM32F10x_StdPeriph_Driver/src/stm32f10x_rcc.c ****   * @retval None
 901:Libraries/STM32F10x_StdPeriph_Driver/src/stm32f10x_rcc.c ****   */
 902:Libraries/STM32F10x_StdPeriph_Driver/src/stm32f10x_rcc.c **** void RCC_RTCCLKCmd(FunctionalState NewState)
 903:Libraries/STM32F10x_StdPeriph_Driver/src/stm32f10x_rcc.c **** {
 602              		.loc 1 903 0
 603              		.cfi_startproc
 604              		@ args = 0, pretend = 0, frame = 0
 605              		@ frame_needed = 0, uses_anonymous_args = 0
 606              		@ link register save eliminated.
 607              	.LVL41:
 904:Libraries/STM32F10x_StdPeriph_Driver/src/stm32f10x_rcc.c ****   /* Check the parameters */
 905:Libraries/STM32F10x_StdPeriph_Driver/src/stm32f10x_rcc.c ****   assert_param(IS_FUNCTIONAL_STATE(NewState));
 906:Libraries/STM32F10x_StdPeriph_Driver/src/stm32f10x_rcc.c ****   *(__IO uint32_t *) BDCR_RTCEN_BB = (uint32_t)NewState;
 608              		.loc 1 906 0
 609 0000 014B     		ldr	r3, .L64
 610 0002 1860     		str	r0, [r3]
 611 0004 7047     		bx	lr
 612              	.L65:
 613 0006 00BF     		.align	2
 614              	.L64:
 615 0008 3C044242 		.word	1111622716
 616              		.cfi_endproc
 617              	.LFE47:
 619              		.section	.text.RCC_GetClocksFreq,"ax",%progbits
 620              		.align	1
 621              		.global	RCC_GetClocksFreq
 622              		.thumb
 623              		.thumb_func
 625              	RCC_GetClocksFreq:
 626              	.LFB48:
 907:Libraries/STM32F10x_StdPeriph_Driver/src/stm32f10x_rcc.c **** }
 908:Libraries/STM32F10x_StdPeriph_Driver/src/stm32f10x_rcc.c **** 
 909:Libraries/STM32F10x_StdPeriph_Driver/src/stm32f10x_rcc.c **** /**
 910:Libraries/STM32F10x_StdPeriph_Driver/src/stm32f10x_rcc.c ****   * @brief  Returns the frequencies of different on chip clocks.
 911:Libraries/STM32F10x_StdPeriph_Driver/src/stm32f10x_rcc.c ****   * @param  RCC_Clocks: pointer to a RCC_ClocksTypeDef structure which will hold
 912:Libraries/STM32F10x_StdPeriph_Driver/src/stm32f10x_rcc.c ****   *   the clocks frequencies.
 913:Libraries/STM32F10x_StdPeriph_Driver/src/stm32f10x_rcc.c ****   * @retval None
 914:Libraries/STM32F10x_StdPeriph_Driver/src/stm32f10x_rcc.c ****   */
 915:Libraries/STM32F10x_StdPeriph_Driver/src/stm32f10x_rcc.c **** void RCC_GetClocksFreq(RCC_ClocksTypeDef* RCC_Clocks)
 916:Libraries/STM32F10x_StdPeriph_Driver/src/stm32f10x_rcc.c **** {
 627              		.loc 1 916 0
 628              		.cfi_startproc
 629              		@ args = 0, pretend = 0, frame = 0
 630              		@ frame_needed = 0, uses_anonymous_args = 0
 631              	.LVL42:
 917:Libraries/STM32F10x_StdPeriph_Driver/src/stm32f10x_rcc.c ****   uint32_t tmp = 0, pllmull = 0, pllsource = 0, presc = 0;
 918:Libraries/STM32F10x_StdPeriph_Driver/src/stm32f10x_rcc.c **** 
 919:Libraries/STM32F10x_StdPeriph_Driver/src/stm32f10x_rcc.c **** #ifdef  STM32F10X_CL
 920:Libraries/STM32F10x_StdPeriph_Driver/src/stm32f10x_rcc.c ****   uint32_t prediv1source = 0, prediv1factor = 0, prediv2factor = 0, pll2mull = 0;
 921:Libraries/STM32F10x_StdPeriph_Driver/src/stm32f10x_rcc.c **** #endif /* STM32F10X_CL */
 922:Libraries/STM32F10x_StdPeriph_Driver/src/stm32f10x_rcc.c **** 
 923:Libraries/STM32F10x_StdPeriph_Driver/src/stm32f10x_rcc.c **** #if defined (STM32F10X_LD_VL) || defined (STM32F10X_MD_VL)
 924:Libraries/STM32F10x_StdPeriph_Driver/src/stm32f10x_rcc.c ****   uint32_t prediv1factor = 0;
 925:Libraries/STM32F10x_StdPeriph_Driver/src/stm32f10x_rcc.c **** #endif
 926:Libraries/STM32F10x_StdPeriph_Driver/src/stm32f10x_rcc.c ****     
 927:Libraries/STM32F10x_StdPeriph_Driver/src/stm32f10x_rcc.c ****   /* Get SYSCLK source -------------------------------------------------------*/
 928:Libraries/STM32F10x_StdPeriph_Driver/src/stm32f10x_rcc.c ****   tmp = RCC->CFGR & CFGR_SWS_Mask;
 632              		.loc 1 928 0
 633 0000 1C4A     		ldr	r2, .L77
 916:Libraries/STM32F10x_StdPeriph_Driver/src/stm32f10x_rcc.c ****   uint32_t tmp = 0, pllmull = 0, pllsource = 0, presc = 0;
 634              		.loc 1 916 0
 635 0002 10B5     		push	{r4, lr}
 636              		.cfi_def_cfa_offset 8
 637              		.cfi_offset 4, -8
 638              		.cfi_offset 14, -4
 639              		.loc 1 928 0
 640 0004 5368     		ldr	r3, [r2, #4]
 641              	.LVL43:
 642 0006 03F00C03 		and	r3, r3, #12
 643              	.LVL44:
 929:Libraries/STM32F10x_StdPeriph_Driver/src/stm32f10x_rcc.c ****   
 930:Libraries/STM32F10x_StdPeriph_Driver/src/stm32f10x_rcc.c ****   switch (tmp)
 644              		.loc 1 930 0
 645 000a 042B     		cmp	r3, #4
 646 000c 01D0     		beq	.L68
 647 000e 082B     		cmp	r3, #8
 648 0010 01D0     		beq	.L69
 649              	.L68:
 931:Libraries/STM32F10x_StdPeriph_Driver/src/stm32f10x_rcc.c ****   {
 932:Libraries/STM32F10x_StdPeriph_Driver/src/stm32f10x_rcc.c ****     case 0x00:  /* HSI used as system clock */
 933:Libraries/STM32F10x_StdPeriph_Driver/src/stm32f10x_rcc.c ****       RCC_Clocks->SYSCLK_Frequency = HSI_Value;
 934:Libraries/STM32F10x_StdPeriph_Driver/src/stm32f10x_rcc.c ****       break;
 935:Libraries/STM32F10x_StdPeriph_Driver/src/stm32f10x_rcc.c ****     case 0x04:  /* HSE used as system clock */
 936:Libraries/STM32F10x_StdPeriph_Driver/src/stm32f10x_rcc.c ****       RCC_Clocks->SYSCLK_Frequency = HSE_Value;
 650              		.loc 1 936 0
 651 0012 194B     		ldr	r3, .L77+4
 652              	.LVL45:
 653 0014 0EE0     		b	.L74
 654              	.LVL46:
 655              	.L69:
 937:Libraries/STM32F10x_StdPeriph_Driver/src/stm32f10x_rcc.c ****       break;
 938:Libraries/STM32F10x_StdPeriph_Driver/src/stm32f10x_rcc.c ****     case 0x08:  /* PLL used as system clock */
 939:Libraries/STM32F10x_StdPeriph_Driver/src/stm32f10x_rcc.c **** 
 940:Libraries/STM32F10x_StdPeriph_Driver/src/stm32f10x_rcc.c ****       /* Get PLL clock source and multiplication factor ----------------------*/
 941:Libraries/STM32F10x_StdPeriph_Driver/src/stm32f10x_rcc.c ****       pllmull = RCC->CFGR & CFGR_PLLMull_Mask;
 656              		.loc 1 941 0
 657 0016 5368     		ldr	r3, [r2, #4]
 658              	.LVL47:
 942:Libraries/STM32F10x_StdPeriph_Driver/src/stm32f10x_rcc.c ****       pllsource = RCC->CFGR & CFGR_PLLSRC_Mask;
 659              		.loc 1 942 0
 660 0018 5168     		ldr	r1, [r2, #4]
 661              	.LVL48:
 943:Libraries/STM32F10x_StdPeriph_Driver/src/stm32f10x_rcc.c ****       
 944:Libraries/STM32F10x_StdPeriph_Driver/src/stm32f10x_rcc.c **** #ifndef STM32F10X_CL      
 945:Libraries/STM32F10x_StdPeriph_Driver/src/stm32f10x_rcc.c ****       pllmull = ( pllmull >> 18) + 2;
 662              		.loc 1 945 0
 663 001a C3F38343 		ubfx	r3, r3, #18, #4
 664              	.LVL49:
 946:Libraries/STM32F10x_StdPeriph_Driver/src/stm32f10x_rcc.c ****       
 947:Libraries/STM32F10x_StdPeriph_Driver/src/stm32f10x_rcc.c ****       if (pllsource == 0x00)
 665              		.loc 1 947 0
 666 001e CC03     		lsls	r4, r1, #15
 945:Libraries/STM32F10x_StdPeriph_Driver/src/stm32f10x_rcc.c ****       
 667              		.loc 1 945 0
 668 0020 03F10203 		add	r3, r3, #2
 669              	.LVL50:
 670              		.loc 1 947 0
 671 0024 02D5     		bpl	.L76
 948:Libraries/STM32F10x_StdPeriph_Driver/src/stm32f10x_rcc.c ****       {/* HSI oscillator clock divided by 2 selected as PLL clock entry */
 949:Libraries/STM32F10x_StdPeriph_Driver/src/stm32f10x_rcc.c ****         RCC_Clocks->SYSCLK_Frequency = (HSI_Value >> 1) * pllmull;
 950:Libraries/STM32F10x_StdPeriph_Driver/src/stm32f10x_rcc.c ****       }
 951:Libraries/STM32F10x_StdPeriph_Driver/src/stm32f10x_rcc.c ****       else
 952:Libraries/STM32F10x_StdPeriph_Driver/src/stm32f10x_rcc.c ****       {
 953:Libraries/STM32F10x_StdPeriph_Driver/src/stm32f10x_rcc.c ****  #if defined (STM32F10X_LD_VL) || defined (STM32F10X_MD_VL)
 954:Libraries/STM32F10x_StdPeriph_Driver/src/stm32f10x_rcc.c ****        prediv1factor = (RCC->CFGR2 & CFGR2_PREDIV1) + 1;
 955:Libraries/STM32F10x_StdPeriph_Driver/src/stm32f10x_rcc.c ****        /* HSE oscillator clock selected as PREDIV1 clock entry */
 956:Libraries/STM32F10x_StdPeriph_Driver/src/stm32f10x_rcc.c ****        RCC_Clocks->SYSCLK_Frequency = (HSE_Value / prediv1factor) * pllmull; 
 957:Libraries/STM32F10x_StdPeriph_Driver/src/stm32f10x_rcc.c ****  #else
 958:Libraries/STM32F10x_StdPeriph_Driver/src/stm32f10x_rcc.c ****         /* HSE selected as PLL clock entry */
 959:Libraries/STM32F10x_StdPeriph_Driver/src/stm32f10x_rcc.c ****         if ((RCC->CFGR & CFGR_PLLXTPRE_Mask) != (uint32_t)RESET)
 672              		.loc 1 959 0
 673 0026 5168     		ldr	r1, [r2, #4]
 674              	.LVL51:
 675 0028 8903     		lsls	r1, r1, #14
 676 002a 01D5     		bpl	.L73
 677              	.L76:
 960:Libraries/STM32F10x_StdPeriph_Driver/src/stm32f10x_rcc.c ****         {/* HSE oscillator clock divided by 2 */
 961:Libraries/STM32F10x_StdPeriph_Driver/src/stm32f10x_rcc.c ****           RCC_Clocks->SYSCLK_Frequency = (HSE_Value >> 1) * pllmull;
 678              		.loc 1 961 0
 679 002c 1349     		ldr	r1, .L77+8
 680 002e 00E0     		b	.L75
 681              	.L73:
 962:Libraries/STM32F10x_StdPeriph_Driver/src/stm32f10x_rcc.c ****         }
 963:Libraries/STM32F10x_StdPeriph_Driver/src/stm32f10x_rcc.c ****         else
 964:Libraries/STM32F10x_StdPeriph_Driver/src/stm32f10x_rcc.c ****         {
 965:Libraries/STM32F10x_StdPeriph_Driver/src/stm32f10x_rcc.c ****           RCC_Clocks->SYSCLK_Frequency = HSE_Value * pllmull;
 682              		.loc 1 965 0
 683 0030 1149     		ldr	r1, .L77+4
 684              	.L75:
 685 0032 4B43     		muls	r3, r1, r3
 686              	.LVL52:
 687              	.L74:
 688 0034 0360     		str	r3, [r0]
 966:Libraries/STM32F10x_StdPeriph_Driver/src/stm32f10x_rcc.c ****         }
 967:Libraries/STM32F10x_StdPeriph_Driver/src/stm32f10x_rcc.c ****  #endif
 968:Libraries/STM32F10x_StdPeriph_Driver/src/stm32f10x_rcc.c ****       }
 969:Libraries/STM32F10x_StdPeriph_Driver/src/stm32f10x_rcc.c **** #else
 970:Libraries/STM32F10x_StdPeriph_Driver/src/stm32f10x_rcc.c ****       pllmull = pllmull >> 18;
 971:Libraries/STM32F10x_StdPeriph_Driver/src/stm32f10x_rcc.c ****       
 972:Libraries/STM32F10x_StdPeriph_Driver/src/stm32f10x_rcc.c ****       if (pllmull != 0x0D)
 973:Libraries/STM32F10x_StdPeriph_Driver/src/stm32f10x_rcc.c ****       {
 974:Libraries/STM32F10x_StdPeriph_Driver/src/stm32f10x_rcc.c ****          pllmull += 2;
 975:Libraries/STM32F10x_StdPeriph_Driver/src/stm32f10x_rcc.c ****       }
 976:Libraries/STM32F10x_StdPeriph_Driver/src/stm32f10x_rcc.c ****       else
 977:Libraries/STM32F10x_StdPeriph_Driver/src/stm32f10x_rcc.c ****       { /* PLL multiplication factor = PLL input clock * 6.5 */
 978:Libraries/STM32F10x_StdPeriph_Driver/src/stm32f10x_rcc.c ****         pllmull = 13 / 2; 
 979:Libraries/STM32F10x_StdPeriph_Driver/src/stm32f10x_rcc.c ****       }
 980:Libraries/STM32F10x_StdPeriph_Driver/src/stm32f10x_rcc.c ****             
 981:Libraries/STM32F10x_StdPeriph_Driver/src/stm32f10x_rcc.c ****       if (pllsource == 0x00)
 982:Libraries/STM32F10x_StdPeriph_Driver/src/stm32f10x_rcc.c ****       {/* HSI oscillator clock divided by 2 selected as PLL clock entry */
 983:Libraries/STM32F10x_StdPeriph_Driver/src/stm32f10x_rcc.c ****         RCC_Clocks->SYSCLK_Frequency = (HSI_Value >> 1) * pllmull;
 984:Libraries/STM32F10x_StdPeriph_Driver/src/stm32f10x_rcc.c ****       }
 985:Libraries/STM32F10x_StdPeriph_Driver/src/stm32f10x_rcc.c ****       else
 986:Libraries/STM32F10x_StdPeriph_Driver/src/stm32f10x_rcc.c ****       {/* PREDIV1 selected as PLL clock entry */
 987:Libraries/STM32F10x_StdPeriph_Driver/src/stm32f10x_rcc.c ****         
 988:Libraries/STM32F10x_StdPeriph_Driver/src/stm32f10x_rcc.c ****         /* Get PREDIV1 clock source and division factor */
 989:Libraries/STM32F10x_StdPeriph_Driver/src/stm32f10x_rcc.c ****         prediv1source = RCC->CFGR2 & CFGR2_PREDIV1SRC;
 990:Libraries/STM32F10x_StdPeriph_Driver/src/stm32f10x_rcc.c ****         prediv1factor = (RCC->CFGR2 & CFGR2_PREDIV1) + 1;
 991:Libraries/STM32F10x_StdPeriph_Driver/src/stm32f10x_rcc.c ****         
 992:Libraries/STM32F10x_StdPeriph_Driver/src/stm32f10x_rcc.c ****         if (prediv1source == 0)
 993:Libraries/STM32F10x_StdPeriph_Driver/src/stm32f10x_rcc.c ****         { /* HSE oscillator clock selected as PREDIV1 clock entry */
 994:Libraries/STM32F10x_StdPeriph_Driver/src/stm32f10x_rcc.c ****           RCC_Clocks->SYSCLK_Frequency = (HSE_Value / prediv1factor) * pllmull;          
 995:Libraries/STM32F10x_StdPeriph_Driver/src/stm32f10x_rcc.c ****         }
 996:Libraries/STM32F10x_StdPeriph_Driver/src/stm32f10x_rcc.c ****         else
 997:Libraries/STM32F10x_StdPeriph_Driver/src/stm32f10x_rcc.c ****         {/* PLL2 clock selected as PREDIV1 clock entry */
 998:Libraries/STM32F10x_StdPeriph_Driver/src/stm32f10x_rcc.c ****           
 999:Libraries/STM32F10x_StdPeriph_Driver/src/stm32f10x_rcc.c ****           /* Get PREDIV2 division factor and PLL2 multiplication factor */
1000:Libraries/STM32F10x_StdPeriph_Driver/src/stm32f10x_rcc.c ****           prediv2factor = ((RCC->CFGR2 & CFGR2_PREDIV2) >> 4) + 1;
1001:Libraries/STM32F10x_StdPeriph_Driver/src/stm32f10x_rcc.c ****           pll2mull = ((RCC->CFGR2 & CFGR2_PLL2MUL) >> 8 ) + 2; 
1002:Libraries/STM32F10x_StdPeriph_Driver/src/stm32f10x_rcc.c ****           RCC_Clocks->SYSCLK_Frequency = (((HSE_Value / prediv2factor) * pll2mull) / prediv1factor)
1003:Libraries/STM32F10x_StdPeriph_Driver/src/stm32f10x_rcc.c ****         }
1004:Libraries/STM32F10x_StdPeriph_Driver/src/stm32f10x_rcc.c ****       }
1005:Libraries/STM32F10x_StdPeriph_Driver/src/stm32f10x_rcc.c **** #endif /* STM32F10X_CL */ 
1006:Libraries/STM32F10x_StdPeriph_Driver/src/stm32f10x_rcc.c ****       break;
1007:Libraries/STM32F10x_StdPeriph_Driver/src/stm32f10x_rcc.c **** 
1008:Libraries/STM32F10x_StdPeriph_Driver/src/stm32f10x_rcc.c ****     default:
1009:Libraries/STM32F10x_StdPeriph_Driver/src/stm32f10x_rcc.c ****       RCC_Clocks->SYSCLK_Frequency = HSI_Value;
1010:Libraries/STM32F10x_StdPeriph_Driver/src/stm32f10x_rcc.c ****       break;
1011:Libraries/STM32F10x_StdPeriph_Driver/src/stm32f10x_rcc.c ****   }
1012:Libraries/STM32F10x_StdPeriph_Driver/src/stm32f10x_rcc.c **** 
1013:Libraries/STM32F10x_StdPeriph_Driver/src/stm32f10x_rcc.c ****   /* Compute HCLK, PCLK1, PCLK2 and ADCCLK clocks frequencies ----------------*/
1014:Libraries/STM32F10x_StdPeriph_Driver/src/stm32f10x_rcc.c ****   /* Get HCLK prescaler */
1015:Libraries/STM32F10x_StdPeriph_Driver/src/stm32f10x_rcc.c ****   tmp = RCC->CFGR & CFGR_HPRE_Set_Mask;
 689              		.loc 1 1015 0
 690 0036 5368     		ldr	r3, [r2, #4]
 691              	.LVL53:
1016:Libraries/STM32F10x_StdPeriph_Driver/src/stm32f10x_rcc.c ****   tmp = tmp >> 4;
1017:Libraries/STM32F10x_StdPeriph_Driver/src/stm32f10x_rcc.c ****   presc = APBAHBPrescTable[tmp];
 692              		.loc 1 1017 0
 693 0038 114C     		ldr	r4, .L77+12
1016:Libraries/STM32F10x_StdPeriph_Driver/src/stm32f10x_rcc.c ****   tmp = tmp >> 4;
 694              		.loc 1 1016 0
 695 003a C3F30313 		ubfx	r3, r3, #4, #4
 696              	.LVL54:
 697              		.loc 1 1017 0
 698 003e E15C     		ldrb	r1, [r4, r3]	@ zero_extendqisi2
 699              	.LVL55:
1018:Libraries/STM32F10x_StdPeriph_Driver/src/stm32f10x_rcc.c ****   /* HCLK clock frequency */
1019:Libraries/STM32F10x_StdPeriph_Driver/src/stm32f10x_rcc.c ****   RCC_Clocks->HCLK_Frequency = RCC_Clocks->SYSCLK_Frequency >> presc;
 700              		.loc 1 1019 0
 701 0040 0368     		ldr	r3, [r0]
 702              	.LVL56:
 703 0042 CB40     		lsrs	r3, r3, r1
 704 0044 4360     		str	r3, [r0, #4]
1020:Libraries/STM32F10x_StdPeriph_Driver/src/stm32f10x_rcc.c ****   /* Get PCLK1 prescaler */
1021:Libraries/STM32F10x_StdPeriph_Driver/src/stm32f10x_rcc.c ****   tmp = RCC->CFGR & CFGR_PPRE1_Set_Mask;
 705              		.loc 1 1021 0
 706 0046 5168     		ldr	r1, [r2, #4]
 707              	.LVL57:
1022:Libraries/STM32F10x_StdPeriph_Driver/src/stm32f10x_rcc.c ****   tmp = tmp >> 8;
 708              		.loc 1 1022 0
 709 0048 C1F30221 		ubfx	r1, r1, #8, #3
 710              	.LVL58:
1023:Libraries/STM32F10x_StdPeriph_Driver/src/stm32f10x_rcc.c ****   presc = APBAHBPrescTable[tmp];
 711              		.loc 1 1023 0
 712 004c 615C     		ldrb	r1, [r4, r1]	@ zero_extendqisi2
 713              	.LVL59:
1024:Libraries/STM32F10x_StdPeriph_Driver/src/stm32f10x_rcc.c ****   /* PCLK1 clock frequency */
1025:Libraries/STM32F10x_StdPeriph_Driver/src/stm32f10x_rcc.c ****   RCC_Clocks->PCLK1_Frequency = RCC_Clocks->HCLK_Frequency >> presc;
 714              		.loc 1 1025 0
 715 004e 23FA01F1 		lsr	r1, r3, r1
 716              	.LVL60:
 717 0052 8160     		str	r1, [r0, #8]
1026:Libraries/STM32F10x_StdPeriph_Driver/src/stm32f10x_rcc.c ****   /* Get PCLK2 prescaler */
1027:Libraries/STM32F10x_StdPeriph_Driver/src/stm32f10x_rcc.c ****   tmp = RCC->CFGR & CFGR_PPRE2_Set_Mask;
 718              		.loc 1 1027 0
 719 0054 5168     		ldr	r1, [r2, #4]
 720              	.LVL61:
1028:Libraries/STM32F10x_StdPeriph_Driver/src/stm32f10x_rcc.c ****   tmp = tmp >> 11;
 721              		.loc 1 1028 0
 722 0056 C1F3C221 		ubfx	r1, r1, #11, #3
 723              	.LVL62:
1029:Libraries/STM32F10x_StdPeriph_Driver/src/stm32f10x_rcc.c ****   presc = APBAHBPrescTable[tmp];
 724              		.loc 1 1029 0
 725 005a 615C     		ldrb	r1, [r4, r1]	@ zero_extendqisi2
 726              	.LVL63:
1030:Libraries/STM32F10x_StdPeriph_Driver/src/stm32f10x_rcc.c ****   /* PCLK2 clock frequency */
1031:Libraries/STM32F10x_StdPeriph_Driver/src/stm32f10x_rcc.c ****   RCC_Clocks->PCLK2_Frequency = RCC_Clocks->HCLK_Frequency >> presc;
 727              		.loc 1 1031 0
 728 005c CB40     		lsrs	r3, r3, r1
 729 005e C360     		str	r3, [r0, #12]
1032:Libraries/STM32F10x_StdPeriph_Driver/src/stm32f10x_rcc.c ****   /* Get ADCCLK prescaler */
1033:Libraries/STM32F10x_StdPeriph_Driver/src/stm32f10x_rcc.c ****   tmp = RCC->CFGR & CFGR_ADCPRE_Set_Mask;
 730              		.loc 1 1033 0
 731 0060 5268     		ldr	r2, [r2, #4]
 732              	.LVL64:
1034:Libraries/STM32F10x_StdPeriph_Driver/src/stm32f10x_rcc.c ****   tmp = tmp >> 14;
1035:Libraries/STM32F10x_StdPeriph_Driver/src/stm32f10x_rcc.c ****   presc = ADCPrescTable[tmp];
 733              		.loc 1 1035 0
 734 0062 0849     		ldr	r1, .L77+16
 735              	.LVL65:
1034:Libraries/STM32F10x_StdPeriph_Driver/src/stm32f10x_rcc.c ****   tmp = tmp >> 14;
 736              		.loc 1 1034 0
 737 0064 C2F38132 		ubfx	r2, r2, #14, #2
 738              	.LVL66:
 739              		.loc 1 1035 0
 740 0068 8A5C     		ldrb	r2, [r1, r2]	@ zero_extendqisi2
 741              	.LVL67:
1036:Libraries/STM32F10x_StdPeriph_Driver/src/stm32f10x_rcc.c ****   /* ADCCLK clock frequency */
1037:Libraries/STM32F10x_StdPeriph_Driver/src/stm32f10x_rcc.c ****   RCC_Clocks->ADCCLK_Frequency = RCC_Clocks->PCLK2_Frequency / presc;
 742              		.loc 1 1037 0
 743 006a B3FBF2F3 		udiv	r3, r3, r2
 744 006e 0361     		str	r3, [r0, #16]
 745 0070 10BD     		pop	{r4, pc}
 746              	.L78:
 747 0072 00BF     		.align	2
 748              	.L77:
 749 0074 00100240 		.word	1073876992
 750 0078 00127A00 		.word	8000000
 751 007c 00093D00 		.word	4000000
 752 0080 00000000 		.word	.LANCHOR0
 753 0084 00000000 		.word	.LANCHOR1
 754              		.cfi_endproc
 755              	.LFE48:
 757              		.section	.text.RCC_AHBPeriphClockCmd,"ax",%progbits
 758              		.align	1
 759              		.global	RCC_AHBPeriphClockCmd
 760              		.thumb
 761              		.thumb_func
 763              	RCC_AHBPeriphClockCmd:
 764              	.LFB49:
1038:Libraries/STM32F10x_StdPeriph_Driver/src/stm32f10x_rcc.c **** }
1039:Libraries/STM32F10x_StdPeriph_Driver/src/stm32f10x_rcc.c **** 
1040:Libraries/STM32F10x_StdPeriph_Driver/src/stm32f10x_rcc.c **** /**
1041:Libraries/STM32F10x_StdPeriph_Driver/src/stm32f10x_rcc.c ****   * @brief  Enables or disables the AHB peripheral clock.
1042:Libraries/STM32F10x_StdPeriph_Driver/src/stm32f10x_rcc.c ****   * @param  RCC_AHBPeriph: specifies the AHB peripheral to gates its clock.
1043:Libraries/STM32F10x_StdPeriph_Driver/src/stm32f10x_rcc.c ****   *   
1044:Libraries/STM32F10x_StdPeriph_Driver/src/stm32f10x_rcc.c ****   *   For @b STM32_Connectivity_line_devices, this parameter can be any combination
1045:Libraries/STM32F10x_StdPeriph_Driver/src/stm32f10x_rcc.c ****   *   of the following values:        
1046:Libraries/STM32F10x_StdPeriph_Driver/src/stm32f10x_rcc.c ****   *     @arg RCC_AHBPeriph_DMA1
1047:Libraries/STM32F10x_StdPeriph_Driver/src/stm32f10x_rcc.c ****   *     @arg RCC_AHBPeriph_DMA2
1048:Libraries/STM32F10x_StdPeriph_Driver/src/stm32f10x_rcc.c ****   *     @arg RCC_AHBPeriph_SRAM
1049:Libraries/STM32F10x_StdPeriph_Driver/src/stm32f10x_rcc.c ****   *     @arg RCC_AHBPeriph_FLITF
1050:Libraries/STM32F10x_StdPeriph_Driver/src/stm32f10x_rcc.c ****   *     @arg RCC_AHBPeriph_CRC
1051:Libraries/STM32F10x_StdPeriph_Driver/src/stm32f10x_rcc.c ****   *     @arg RCC_AHBPeriph_OTG_FS    
1052:Libraries/STM32F10x_StdPeriph_Driver/src/stm32f10x_rcc.c ****   *     @arg RCC_AHBPeriph_ETH_MAC   
1053:Libraries/STM32F10x_StdPeriph_Driver/src/stm32f10x_rcc.c ****   *     @arg RCC_AHBPeriph_ETH_MAC_Tx
1054:Libraries/STM32F10x_StdPeriph_Driver/src/stm32f10x_rcc.c ****   *     @arg RCC_AHBPeriph_ETH_MAC_Rx
1055:Libraries/STM32F10x_StdPeriph_Driver/src/stm32f10x_rcc.c ****   * 
1056:Libraries/STM32F10x_StdPeriph_Driver/src/stm32f10x_rcc.c ****   *   For @b other_STM32_devices, this parameter can be any combination of the 
1057:Libraries/STM32F10x_StdPeriph_Driver/src/stm32f10x_rcc.c ****   *   following values:        
1058:Libraries/STM32F10x_StdPeriph_Driver/src/stm32f10x_rcc.c ****   *     @arg RCC_AHBPeriph_DMA1
1059:Libraries/STM32F10x_StdPeriph_Driver/src/stm32f10x_rcc.c ****   *     @arg RCC_AHBPeriph_DMA2
1060:Libraries/STM32F10x_StdPeriph_Driver/src/stm32f10x_rcc.c ****   *     @arg RCC_AHBPeriph_SRAM
1061:Libraries/STM32F10x_StdPeriph_Driver/src/stm32f10x_rcc.c ****   *     @arg RCC_AHBPeriph_FLITF
1062:Libraries/STM32F10x_StdPeriph_Driver/src/stm32f10x_rcc.c ****   *     @arg RCC_AHBPeriph_CRC
1063:Libraries/STM32F10x_StdPeriph_Driver/src/stm32f10x_rcc.c ****   *     @arg RCC_AHBPeriph_FSMC
1064:Libraries/STM32F10x_StdPeriph_Driver/src/stm32f10x_rcc.c ****   *     @arg RCC_AHBPeriph_SDIO
1065:Libraries/STM32F10x_StdPeriph_Driver/src/stm32f10x_rcc.c ****   *   
1066:Libraries/STM32F10x_StdPeriph_Driver/src/stm32f10x_rcc.c ****   * @note SRAM and FLITF clock can be disabled only during sleep mode.
1067:Libraries/STM32F10x_StdPeriph_Driver/src/stm32f10x_rcc.c ****   * @param  NewState: new state of the specified peripheral clock.
1068:Libraries/STM32F10x_StdPeriph_Driver/src/stm32f10x_rcc.c ****   *   This parameter can be: ENABLE or DISABLE.
1069:Libraries/STM32F10x_StdPeriph_Driver/src/stm32f10x_rcc.c ****   * @retval None
1070:Libraries/STM32F10x_StdPeriph_Driver/src/stm32f10x_rcc.c ****   */
1071:Libraries/STM32F10x_StdPeriph_Driver/src/stm32f10x_rcc.c **** void RCC_AHBPeriphClockCmd(uint32_t RCC_AHBPeriph, FunctionalState NewState)
1072:Libraries/STM32F10x_StdPeriph_Driver/src/stm32f10x_rcc.c **** {
 765              		.loc 1 1072 0
 766              		.cfi_startproc
 767              		@ args = 0, pretend = 0, frame = 0
 768              		@ frame_needed = 0, uses_anonymous_args = 0
 769              		@ link register save eliminated.
 770              	.LVL68:
 771 0000 044B     		ldr	r3, .L83
1073:Libraries/STM32F10x_StdPeriph_Driver/src/stm32f10x_rcc.c ****   /* Check the parameters */
1074:Libraries/STM32F10x_StdPeriph_Driver/src/stm32f10x_rcc.c ****   assert_param(IS_RCC_AHB_PERIPH(RCC_AHBPeriph));
1075:Libraries/STM32F10x_StdPeriph_Driver/src/stm32f10x_rcc.c ****   assert_param(IS_FUNCTIONAL_STATE(NewState));
1076:Libraries/STM32F10x_StdPeriph_Driver/src/stm32f10x_rcc.c **** 
1077:Libraries/STM32F10x_StdPeriph_Driver/src/stm32f10x_rcc.c ****   if (NewState != DISABLE)
1078:Libraries/STM32F10x_StdPeriph_Driver/src/stm32f10x_rcc.c ****   {
1079:Libraries/STM32F10x_StdPeriph_Driver/src/stm32f10x_rcc.c ****     RCC->AHBENR |= RCC_AHBPeriph;
 772              		.loc 1 1079 0
 773 0002 5A69     		ldr	r2, [r3, #20]
1077:Libraries/STM32F10x_StdPeriph_Driver/src/stm32f10x_rcc.c ****   {
 774              		.loc 1 1077 0
 775 0004 09B1     		cbz	r1, .L80
 776              		.loc 1 1079 0
 777 0006 1043     		orrs	r0, r0, r2
 778              	.LVL69:
 779 0008 01E0     		b	.L82
 780              	.LVL70:
 781              	.L80:
1080:Libraries/STM32F10x_StdPeriph_Driver/src/stm32f10x_rcc.c ****   }
1081:Libraries/STM32F10x_StdPeriph_Driver/src/stm32f10x_rcc.c ****   else
1082:Libraries/STM32F10x_StdPeriph_Driver/src/stm32f10x_rcc.c ****   {
1083:Libraries/STM32F10x_StdPeriph_Driver/src/stm32f10x_rcc.c ****     RCC->AHBENR &= ~RCC_AHBPeriph;
 782              		.loc 1 1083 0
 783 000a 22EA0000 		bic	r0, r2, r0
 784              	.LVL71:
 785              	.L82:
 786 000e 5861     		str	r0, [r3, #20]
 787 0010 7047     		bx	lr
 788              	.L84:
 789 0012 00BF     		.align	2
 790              	.L83:
 791 0014 00100240 		.word	1073876992
 792              		.cfi_endproc
 793              	.LFE49:
 795              		.section	.text.RCC_APB2PeriphClockCmd,"ax",%progbits
 796              		.align	1
 797              		.global	RCC_APB2PeriphClockCmd
 798              		.thumb
 799              		.thumb_func
 801              	RCC_APB2PeriphClockCmd:
 802              	.LFB50:
1084:Libraries/STM32F10x_StdPeriph_Driver/src/stm32f10x_rcc.c ****   }
1085:Libraries/STM32F10x_StdPeriph_Driver/src/stm32f10x_rcc.c **** }
1086:Libraries/STM32F10x_StdPeriph_Driver/src/stm32f10x_rcc.c **** 
1087:Libraries/STM32F10x_StdPeriph_Driver/src/stm32f10x_rcc.c **** /**
1088:Libraries/STM32F10x_StdPeriph_Driver/src/stm32f10x_rcc.c ****   * @brief  Enables or disables the High Speed APB (APB2) peripheral clock.
1089:Libraries/STM32F10x_StdPeriph_Driver/src/stm32f10x_rcc.c ****   * @param  RCC_APB2Periph: specifies the APB2 peripheral to gates its clock.
1090:Libraries/STM32F10x_StdPeriph_Driver/src/stm32f10x_rcc.c ****   *   This parameter can be any combination of the following values:
1091:Libraries/STM32F10x_StdPeriph_Driver/src/stm32f10x_rcc.c ****   *     @arg RCC_APB2Periph_AFIO, RCC_APB2Periph_GPIOA, RCC_APB2Periph_GPIOB,
1092:Libraries/STM32F10x_StdPeriph_Driver/src/stm32f10x_rcc.c ****   *          RCC_APB2Periph_GPIOC, RCC_APB2Periph_GPIOD, RCC_APB2Periph_GPIOE,
1093:Libraries/STM32F10x_StdPeriph_Driver/src/stm32f10x_rcc.c ****   *          RCC_APB2Periph_GPIOF, RCC_APB2Periph_GPIOG, RCC_APB2Periph_ADC1,
1094:Libraries/STM32F10x_StdPeriph_Driver/src/stm32f10x_rcc.c ****   *          RCC_APB2Periph_ADC2, RCC_APB2Periph_TIM1, RCC_APB2Periph_SPI1,
1095:Libraries/STM32F10x_StdPeriph_Driver/src/stm32f10x_rcc.c ****   *          RCC_APB2Periph_TIM8, RCC_APB2Periph_USART1, RCC_APB2Periph_ADC3,
1096:Libraries/STM32F10x_StdPeriph_Driver/src/stm32f10x_rcc.c ****   *          RCC_APB2Periph_TIM15, RCC_APB2Periph_TIM16, RCC_APB2Periph_TIM17,
1097:Libraries/STM32F10x_StdPeriph_Driver/src/stm32f10x_rcc.c ****   *          RCC_APB2Periph_TIM9, RCC_APB2Periph_TIM10, RCC_APB2Periph_TIM11     
1098:Libraries/STM32F10x_StdPeriph_Driver/src/stm32f10x_rcc.c ****   * @param  NewState: new state of the specified peripheral clock.
1099:Libraries/STM32F10x_StdPeriph_Driver/src/stm32f10x_rcc.c ****   *   This parameter can be: ENABLE or DISABLE.
1100:Libraries/STM32F10x_StdPeriph_Driver/src/stm32f10x_rcc.c ****   * @retval None
1101:Libraries/STM32F10x_StdPeriph_Driver/src/stm32f10x_rcc.c ****   */
1102:Libraries/STM32F10x_StdPeriph_Driver/src/stm32f10x_rcc.c **** void RCC_APB2PeriphClockCmd(uint32_t RCC_APB2Periph, FunctionalState NewState)
1103:Libraries/STM32F10x_StdPeriph_Driver/src/stm32f10x_rcc.c **** {
 803              		.loc 1 1103 0
 804              		.cfi_startproc
 805              		@ args = 0, pretend = 0, frame = 0
 806              		@ frame_needed = 0, uses_anonymous_args = 0
 807              		@ link register save eliminated.
 808              	.LVL72:
 809 0000 044B     		ldr	r3, .L89
1104:Libraries/STM32F10x_StdPeriph_Driver/src/stm32f10x_rcc.c ****   /* Check the parameters */
1105:Libraries/STM32F10x_StdPeriph_Driver/src/stm32f10x_rcc.c ****   assert_param(IS_RCC_APB2_PERIPH(RCC_APB2Periph));
1106:Libraries/STM32F10x_StdPeriph_Driver/src/stm32f10x_rcc.c ****   assert_param(IS_FUNCTIONAL_STATE(NewState));
1107:Libraries/STM32F10x_StdPeriph_Driver/src/stm32f10x_rcc.c ****   if (NewState != DISABLE)
1108:Libraries/STM32F10x_StdPeriph_Driver/src/stm32f10x_rcc.c ****   {
1109:Libraries/STM32F10x_StdPeriph_Driver/src/stm32f10x_rcc.c ****     RCC->APB2ENR |= RCC_APB2Periph;
 810              		.loc 1 1109 0
 811 0002 9A69     		ldr	r2, [r3, #24]
1107:Libraries/STM32F10x_StdPeriph_Driver/src/stm32f10x_rcc.c ****   {
 812              		.loc 1 1107 0
 813 0004 09B1     		cbz	r1, .L86
 814              		.loc 1 1109 0
 815 0006 1043     		orrs	r0, r0, r2
 816              	.LVL73:
 817 0008 01E0     		b	.L88
 818              	.LVL74:
 819              	.L86:
1110:Libraries/STM32F10x_StdPeriph_Driver/src/stm32f10x_rcc.c ****   }
1111:Libraries/STM32F10x_StdPeriph_Driver/src/stm32f10x_rcc.c ****   else
1112:Libraries/STM32F10x_StdPeriph_Driver/src/stm32f10x_rcc.c ****   {
1113:Libraries/STM32F10x_StdPeriph_Driver/src/stm32f10x_rcc.c ****     RCC->APB2ENR &= ~RCC_APB2Periph;
 820              		.loc 1 1113 0
 821 000a 22EA0000 		bic	r0, r2, r0
 822              	.LVL75:
 823              	.L88:
 824 000e 9861     		str	r0, [r3, #24]
 825 0010 7047     		bx	lr
 826              	.L90:
 827 0012 00BF     		.align	2
 828              	.L89:
 829 0014 00100240 		.word	1073876992
 830              		.cfi_endproc
 831              	.LFE50:
 833              		.section	.text.RCC_APB1PeriphClockCmd,"ax",%progbits
 834              		.align	1
 835              		.global	RCC_APB1PeriphClockCmd
 836              		.thumb
 837              		.thumb_func
 839              	RCC_APB1PeriphClockCmd:
 840              	.LFB51:
1114:Libraries/STM32F10x_StdPeriph_Driver/src/stm32f10x_rcc.c ****   }
1115:Libraries/STM32F10x_StdPeriph_Driver/src/stm32f10x_rcc.c **** }
1116:Libraries/STM32F10x_StdPeriph_Driver/src/stm32f10x_rcc.c **** 
1117:Libraries/STM32F10x_StdPeriph_Driver/src/stm32f10x_rcc.c **** /**
1118:Libraries/STM32F10x_StdPeriph_Driver/src/stm32f10x_rcc.c ****   * @brief  Enables or disables the Low Speed APB (APB1) peripheral clock.
1119:Libraries/STM32F10x_StdPeriph_Driver/src/stm32f10x_rcc.c ****   * @param  RCC_APB1Periph: specifies the APB1 peripheral to gates its clock.
1120:Libraries/STM32F10x_StdPeriph_Driver/src/stm32f10x_rcc.c ****   *   This parameter can be any combination of the following values:
1121:Libraries/STM32F10x_StdPeriph_Driver/src/stm32f10x_rcc.c ****   *     @arg RCC_APB1Periph_TIM2, RCC_APB1Periph_TIM3, RCC_APB1Periph_TIM4,
1122:Libraries/STM32F10x_StdPeriph_Driver/src/stm32f10x_rcc.c ****   *          RCC_APB1Periph_TIM5, RCC_APB1Periph_TIM6, RCC_APB1Periph_TIM7,
1123:Libraries/STM32F10x_StdPeriph_Driver/src/stm32f10x_rcc.c ****   *          RCC_APB1Periph_WWDG, RCC_APB1Periph_SPI2, RCC_APB1Periph_SPI3,
1124:Libraries/STM32F10x_StdPeriph_Driver/src/stm32f10x_rcc.c ****   *          RCC_APB1Periph_USART2, RCC_APB1Periph_USART3, RCC_APB1Periph_USART4, 
1125:Libraries/STM32F10x_StdPeriph_Driver/src/stm32f10x_rcc.c ****   *          RCC_APB1Periph_USART5, RCC_APB1Periph_I2C1, RCC_APB1Periph_I2C2,
1126:Libraries/STM32F10x_StdPeriph_Driver/src/stm32f10x_rcc.c ****   *          RCC_APB1Periph_USB, RCC_APB1Periph_CAN1, RCC_APB1Periph_BKP,
1127:Libraries/STM32F10x_StdPeriph_Driver/src/stm32f10x_rcc.c ****   *          RCC_APB1Periph_PWR, RCC_APB1Periph_DAC, RCC_APB1Periph_CEC,
1128:Libraries/STM32F10x_StdPeriph_Driver/src/stm32f10x_rcc.c ****   *          RCC_APB1Periph_TIM12, RCC_APB1Periph_TIM13, RCC_APB1Periph_TIM14
1129:Libraries/STM32F10x_StdPeriph_Driver/src/stm32f10x_rcc.c ****   * @param  NewState: new state of the specified peripheral clock.
1130:Libraries/STM32F10x_StdPeriph_Driver/src/stm32f10x_rcc.c ****   *   This parameter can be: ENABLE or DISABLE.
1131:Libraries/STM32F10x_StdPeriph_Driver/src/stm32f10x_rcc.c ****   * @retval None
1132:Libraries/STM32F10x_StdPeriph_Driver/src/stm32f10x_rcc.c ****   */
1133:Libraries/STM32F10x_StdPeriph_Driver/src/stm32f10x_rcc.c **** void RCC_APB1PeriphClockCmd(uint32_t RCC_APB1Periph, FunctionalState NewState)
1134:Libraries/STM32F10x_StdPeriph_Driver/src/stm32f10x_rcc.c **** {
 841              		.loc 1 1134 0
 842              		.cfi_startproc
 843              		@ args = 0, pretend = 0, frame = 0
 844              		@ frame_needed = 0, uses_anonymous_args = 0
 845              		@ link register save eliminated.
 846              	.LVL76:
 847 0000 044B     		ldr	r3, .L95
1135:Libraries/STM32F10x_StdPeriph_Driver/src/stm32f10x_rcc.c ****   /* Check the parameters */
1136:Libraries/STM32F10x_StdPeriph_Driver/src/stm32f10x_rcc.c ****   assert_param(IS_RCC_APB1_PERIPH(RCC_APB1Periph));
1137:Libraries/STM32F10x_StdPeriph_Driver/src/stm32f10x_rcc.c ****   assert_param(IS_FUNCTIONAL_STATE(NewState));
1138:Libraries/STM32F10x_StdPeriph_Driver/src/stm32f10x_rcc.c ****   if (NewState != DISABLE)
1139:Libraries/STM32F10x_StdPeriph_Driver/src/stm32f10x_rcc.c ****   {
1140:Libraries/STM32F10x_StdPeriph_Driver/src/stm32f10x_rcc.c ****     RCC->APB1ENR |= RCC_APB1Periph;
 848              		.loc 1 1140 0
 849 0002 DA69     		ldr	r2, [r3, #28]
1138:Libraries/STM32F10x_StdPeriph_Driver/src/stm32f10x_rcc.c ****   {
 850              		.loc 1 1138 0
 851 0004 09B1     		cbz	r1, .L92
 852              		.loc 1 1140 0
 853 0006 1043     		orrs	r0, r0, r2
 854              	.LVL77:
 855 0008 01E0     		b	.L94
 856              	.LVL78:
 857              	.L92:
1141:Libraries/STM32F10x_StdPeriph_Driver/src/stm32f10x_rcc.c ****   }
1142:Libraries/STM32F10x_StdPeriph_Driver/src/stm32f10x_rcc.c ****   else
1143:Libraries/STM32F10x_StdPeriph_Driver/src/stm32f10x_rcc.c ****   {
1144:Libraries/STM32F10x_StdPeriph_Driver/src/stm32f10x_rcc.c ****     RCC->APB1ENR &= ~RCC_APB1Periph;
 858              		.loc 1 1144 0
 859 000a 22EA0000 		bic	r0, r2, r0
 860              	.LVL79:
 861              	.L94:
 862 000e D861     		str	r0, [r3, #28]
 863 0010 7047     		bx	lr
 864              	.L96:
 865 0012 00BF     		.align	2
 866              	.L95:
 867 0014 00100240 		.word	1073876992
 868              		.cfi_endproc
 869              	.LFE51:
 871              		.section	.text.RCC_APB2PeriphResetCmd,"ax",%progbits
 872              		.align	1
 873              		.global	RCC_APB2PeriphResetCmd
 874              		.thumb
 875              		.thumb_func
 877              	RCC_APB2PeriphResetCmd:
 878              	.LFB52:
1145:Libraries/STM32F10x_StdPeriph_Driver/src/stm32f10x_rcc.c ****   }
1146:Libraries/STM32F10x_StdPeriph_Driver/src/stm32f10x_rcc.c **** }
1147:Libraries/STM32F10x_StdPeriph_Driver/src/stm32f10x_rcc.c **** 
1148:Libraries/STM32F10x_StdPeriph_Driver/src/stm32f10x_rcc.c **** #ifdef STM32F10X_CL
1149:Libraries/STM32F10x_StdPeriph_Driver/src/stm32f10x_rcc.c **** /**
1150:Libraries/STM32F10x_StdPeriph_Driver/src/stm32f10x_rcc.c ****   * @brief  Forces or releases AHB peripheral reset.
1151:Libraries/STM32F10x_StdPeriph_Driver/src/stm32f10x_rcc.c ****   * @note   This function applies only to STM32 Connectivity line devices.
1152:Libraries/STM32F10x_StdPeriph_Driver/src/stm32f10x_rcc.c ****   * @param  RCC_AHBPeriph: specifies the AHB peripheral to reset.
1153:Libraries/STM32F10x_StdPeriph_Driver/src/stm32f10x_rcc.c ****   *   This parameter can be any combination of the following values:
1154:Libraries/STM32F10x_StdPeriph_Driver/src/stm32f10x_rcc.c ****   *     @arg RCC_AHBPeriph_OTG_FS 
1155:Libraries/STM32F10x_StdPeriph_Driver/src/stm32f10x_rcc.c ****   *     @arg RCC_AHBPeriph_ETH_MAC
1156:Libraries/STM32F10x_StdPeriph_Driver/src/stm32f10x_rcc.c ****   * @param  NewState: new state of the specified peripheral reset.
1157:Libraries/STM32F10x_StdPeriph_Driver/src/stm32f10x_rcc.c ****   *   This parameter can be: ENABLE or DISABLE.
1158:Libraries/STM32F10x_StdPeriph_Driver/src/stm32f10x_rcc.c ****   * @retval None
1159:Libraries/STM32F10x_StdPeriph_Driver/src/stm32f10x_rcc.c ****   */
1160:Libraries/STM32F10x_StdPeriph_Driver/src/stm32f10x_rcc.c **** void RCC_AHBPeriphResetCmd(uint32_t RCC_AHBPeriph, FunctionalState NewState)
1161:Libraries/STM32F10x_StdPeriph_Driver/src/stm32f10x_rcc.c **** {
1162:Libraries/STM32F10x_StdPeriph_Driver/src/stm32f10x_rcc.c ****   /* Check the parameters */
1163:Libraries/STM32F10x_StdPeriph_Driver/src/stm32f10x_rcc.c ****   assert_param(IS_RCC_AHB_PERIPH_RESET(RCC_AHBPeriph));
1164:Libraries/STM32F10x_StdPeriph_Driver/src/stm32f10x_rcc.c ****   assert_param(IS_FUNCTIONAL_STATE(NewState));
1165:Libraries/STM32F10x_StdPeriph_Driver/src/stm32f10x_rcc.c **** 
1166:Libraries/STM32F10x_StdPeriph_Driver/src/stm32f10x_rcc.c ****   if (NewState != DISABLE)
1167:Libraries/STM32F10x_StdPeriph_Driver/src/stm32f10x_rcc.c ****   {
1168:Libraries/STM32F10x_StdPeriph_Driver/src/stm32f10x_rcc.c ****     RCC->AHBRSTR |= RCC_AHBPeriph;
1169:Libraries/STM32F10x_StdPeriph_Driver/src/stm32f10x_rcc.c ****   }
1170:Libraries/STM32F10x_StdPeriph_Driver/src/stm32f10x_rcc.c ****   else
1171:Libraries/STM32F10x_StdPeriph_Driver/src/stm32f10x_rcc.c ****   {
1172:Libraries/STM32F10x_StdPeriph_Driver/src/stm32f10x_rcc.c ****     RCC->AHBRSTR &= ~RCC_AHBPeriph;
1173:Libraries/STM32F10x_StdPeriph_Driver/src/stm32f10x_rcc.c ****   }
1174:Libraries/STM32F10x_StdPeriph_Driver/src/stm32f10x_rcc.c **** }
1175:Libraries/STM32F10x_StdPeriph_Driver/src/stm32f10x_rcc.c **** #endif /* STM32F10X_CL */ 
1176:Libraries/STM32F10x_StdPeriph_Driver/src/stm32f10x_rcc.c **** 
1177:Libraries/STM32F10x_StdPeriph_Driver/src/stm32f10x_rcc.c **** /**
1178:Libraries/STM32F10x_StdPeriph_Driver/src/stm32f10x_rcc.c ****   * @brief  Forces or releases High Speed APB (APB2) peripheral reset.
1179:Libraries/STM32F10x_StdPeriph_Driver/src/stm32f10x_rcc.c ****   * @param  RCC_APB2Periph: specifies the APB2 peripheral to reset.
1180:Libraries/STM32F10x_StdPeriph_Driver/src/stm32f10x_rcc.c ****   *   This parameter can be any combination of the following values:
1181:Libraries/STM32F10x_StdPeriph_Driver/src/stm32f10x_rcc.c ****   *     @arg RCC_APB2Periph_AFIO, RCC_APB2Periph_GPIOA, RCC_APB2Periph_GPIOB,
1182:Libraries/STM32F10x_StdPeriph_Driver/src/stm32f10x_rcc.c ****   *          RCC_APB2Periph_GPIOC, RCC_APB2Periph_GPIOD, RCC_APB2Periph_GPIOE,
1183:Libraries/STM32F10x_StdPeriph_Driver/src/stm32f10x_rcc.c ****   *          RCC_APB2Periph_GPIOF, RCC_APB2Periph_GPIOG, RCC_APB2Periph_ADC1,
1184:Libraries/STM32F10x_StdPeriph_Driver/src/stm32f10x_rcc.c ****   *          RCC_APB2Periph_ADC2, RCC_APB2Periph_TIM1, RCC_APB2Periph_SPI1,
1185:Libraries/STM32F10x_StdPeriph_Driver/src/stm32f10x_rcc.c ****   *          RCC_APB2Periph_TIM8, RCC_APB2Periph_USART1, RCC_APB2Periph_ADC3,
1186:Libraries/STM32F10x_StdPeriph_Driver/src/stm32f10x_rcc.c ****   *          RCC_APB2Periph_TIM15, RCC_APB2Periph_TIM16, RCC_APB2Periph_TIM17,
1187:Libraries/STM32F10x_StdPeriph_Driver/src/stm32f10x_rcc.c ****   *          RCC_APB2Periph_TIM9, RCC_APB2Periph_TIM10, RCC_APB2Periph_TIM11  
1188:Libraries/STM32F10x_StdPeriph_Driver/src/stm32f10x_rcc.c ****   * @param  NewState: new state of the specified peripheral reset.
1189:Libraries/STM32F10x_StdPeriph_Driver/src/stm32f10x_rcc.c ****   *   This parameter can be: ENABLE or DISABLE.
1190:Libraries/STM32F10x_StdPeriph_Driver/src/stm32f10x_rcc.c ****   * @retval None
1191:Libraries/STM32F10x_StdPeriph_Driver/src/stm32f10x_rcc.c ****   */
1192:Libraries/STM32F10x_StdPeriph_Driver/src/stm32f10x_rcc.c **** void RCC_APB2PeriphResetCmd(uint32_t RCC_APB2Periph, FunctionalState NewState)
1193:Libraries/STM32F10x_StdPeriph_Driver/src/stm32f10x_rcc.c **** {
 879              		.loc 1 1193 0
 880              		.cfi_startproc
 881              		@ args = 0, pretend = 0, frame = 0
 882              		@ frame_needed = 0, uses_anonymous_args = 0
 883              		@ link register save eliminated.
 884              	.LVL80:
 885 0000 044B     		ldr	r3, .L101
1194:Libraries/STM32F10x_StdPeriph_Driver/src/stm32f10x_rcc.c ****   /* Check the parameters */
1195:Libraries/STM32F10x_StdPeriph_Driver/src/stm32f10x_rcc.c ****   assert_param(IS_RCC_APB2_PERIPH(RCC_APB2Periph));
1196:Libraries/STM32F10x_StdPeriph_Driver/src/stm32f10x_rcc.c ****   assert_param(IS_FUNCTIONAL_STATE(NewState));
1197:Libraries/STM32F10x_StdPeriph_Driver/src/stm32f10x_rcc.c ****   if (NewState != DISABLE)
1198:Libraries/STM32F10x_StdPeriph_Driver/src/stm32f10x_rcc.c ****   {
1199:Libraries/STM32F10x_StdPeriph_Driver/src/stm32f10x_rcc.c ****     RCC->APB2RSTR |= RCC_APB2Periph;
 886              		.loc 1 1199 0
 887 0002 DA68     		ldr	r2, [r3, #12]
1197:Libraries/STM32F10x_StdPeriph_Driver/src/stm32f10x_rcc.c ****   {
 888              		.loc 1 1197 0
 889 0004 09B1     		cbz	r1, .L98
 890              		.loc 1 1199 0
 891 0006 1043     		orrs	r0, r0, r2
 892              	.LVL81:
 893 0008 01E0     		b	.L100
 894              	.LVL82:
 895              	.L98:
1200:Libraries/STM32F10x_StdPeriph_Driver/src/stm32f10x_rcc.c ****   }
1201:Libraries/STM32F10x_StdPeriph_Driver/src/stm32f10x_rcc.c ****   else
1202:Libraries/STM32F10x_StdPeriph_Driver/src/stm32f10x_rcc.c ****   {
1203:Libraries/STM32F10x_StdPeriph_Driver/src/stm32f10x_rcc.c ****     RCC->APB2RSTR &= ~RCC_APB2Periph;
 896              		.loc 1 1203 0
 897 000a 22EA0000 		bic	r0, r2, r0
 898              	.LVL83:
 899              	.L100:
 900 000e D860     		str	r0, [r3, #12]
 901 0010 7047     		bx	lr
 902              	.L102:
 903 0012 00BF     		.align	2
 904              	.L101:
 905 0014 00100240 		.word	1073876992
 906              		.cfi_endproc
 907              	.LFE52:
 909              		.section	.text.RCC_APB1PeriphResetCmd,"ax",%progbits
 910              		.align	1
 911              		.global	RCC_APB1PeriphResetCmd
 912              		.thumb
 913              		.thumb_func
 915              	RCC_APB1PeriphResetCmd:
 916              	.LFB53:
1204:Libraries/STM32F10x_StdPeriph_Driver/src/stm32f10x_rcc.c ****   }
1205:Libraries/STM32F10x_StdPeriph_Driver/src/stm32f10x_rcc.c **** }
1206:Libraries/STM32F10x_StdPeriph_Driver/src/stm32f10x_rcc.c **** 
1207:Libraries/STM32F10x_StdPeriph_Driver/src/stm32f10x_rcc.c **** /**
1208:Libraries/STM32F10x_StdPeriph_Driver/src/stm32f10x_rcc.c ****   * @brief  Forces or releases Low Speed APB (APB1) peripheral reset.
1209:Libraries/STM32F10x_StdPeriph_Driver/src/stm32f10x_rcc.c ****   * @param  RCC_APB1Periph: specifies the APB1 peripheral to reset.
1210:Libraries/STM32F10x_StdPeriph_Driver/src/stm32f10x_rcc.c ****   *   This parameter can be any combination of the following values:
1211:Libraries/STM32F10x_StdPeriph_Driver/src/stm32f10x_rcc.c ****   *     @arg RCC_APB1Periph_TIM2, RCC_APB1Periph_TIM3, RCC_APB1Periph_TIM4,
1212:Libraries/STM32F10x_StdPeriph_Driver/src/stm32f10x_rcc.c ****   *          RCC_APB1Periph_TIM5, RCC_APB1Periph_TIM6, RCC_APB1Periph_TIM7,
1213:Libraries/STM32F10x_StdPeriph_Driver/src/stm32f10x_rcc.c ****   *          RCC_APB1Periph_WWDG, RCC_APB1Periph_SPI2, RCC_APB1Periph_SPI3,
1214:Libraries/STM32F10x_StdPeriph_Driver/src/stm32f10x_rcc.c ****   *          RCC_APB1Periph_USART2, RCC_APB1Periph_USART3, RCC_APB1Periph_USART4, 
1215:Libraries/STM32F10x_StdPeriph_Driver/src/stm32f10x_rcc.c ****   *          RCC_APB1Periph_USART5, RCC_APB1Periph_I2C1, RCC_APB1Periph_I2C2,
1216:Libraries/STM32F10x_StdPeriph_Driver/src/stm32f10x_rcc.c ****   *          RCC_APB1Periph_USB, RCC_APB1Periph_CAN1, RCC_APB1Periph_BKP,
1217:Libraries/STM32F10x_StdPeriph_Driver/src/stm32f10x_rcc.c ****   *          RCC_APB1Periph_PWR, RCC_APB1Periph_DAC, RCC_APB1Periph_CEC,
1218:Libraries/STM32F10x_StdPeriph_Driver/src/stm32f10x_rcc.c ****   *          RCC_APB1Periph_TIM12, RCC_APB1Periph_TIM13, RCC_APB1Periph_TIM14  
1219:Libraries/STM32F10x_StdPeriph_Driver/src/stm32f10x_rcc.c ****   * @param  NewState: new state of the specified peripheral clock.
1220:Libraries/STM32F10x_StdPeriph_Driver/src/stm32f10x_rcc.c ****   *   This parameter can be: ENABLE or DISABLE.
1221:Libraries/STM32F10x_StdPeriph_Driver/src/stm32f10x_rcc.c ****   * @retval None
1222:Libraries/STM32F10x_StdPeriph_Driver/src/stm32f10x_rcc.c ****   */
1223:Libraries/STM32F10x_StdPeriph_Driver/src/stm32f10x_rcc.c **** void RCC_APB1PeriphResetCmd(uint32_t RCC_APB1Periph, FunctionalState NewState)
1224:Libraries/STM32F10x_StdPeriph_Driver/src/stm32f10x_rcc.c **** {
 917              		.loc 1 1224 0
 918              		.cfi_startproc
 919              		@ args = 0, pretend = 0, frame = 0
 920              		@ frame_needed = 0, uses_anonymous_args = 0
 921              		@ link register save eliminated.
 922              	.LVL84:
 923 0000 044B     		ldr	r3, .L107
1225:Libraries/STM32F10x_StdPeriph_Driver/src/stm32f10x_rcc.c ****   /* Check the parameters */
1226:Libraries/STM32F10x_StdPeriph_Driver/src/stm32f10x_rcc.c ****   assert_param(IS_RCC_APB1_PERIPH(RCC_APB1Periph));
1227:Libraries/STM32F10x_StdPeriph_Driver/src/stm32f10x_rcc.c ****   assert_param(IS_FUNCTIONAL_STATE(NewState));
1228:Libraries/STM32F10x_StdPeriph_Driver/src/stm32f10x_rcc.c ****   if (NewState != DISABLE)
1229:Libraries/STM32F10x_StdPeriph_Driver/src/stm32f10x_rcc.c ****   {
1230:Libraries/STM32F10x_StdPeriph_Driver/src/stm32f10x_rcc.c ****     RCC->APB1RSTR |= RCC_APB1Periph;
 924              		.loc 1 1230 0
 925 0002 1A69     		ldr	r2, [r3, #16]
1228:Libraries/STM32F10x_StdPeriph_Driver/src/stm32f10x_rcc.c ****   {
 926              		.loc 1 1228 0
 927 0004 09B1     		cbz	r1, .L104
 928              		.loc 1 1230 0
 929 0006 1043     		orrs	r0, r0, r2
 930              	.LVL85:
 931 0008 01E0     		b	.L106
 932              	.LVL86:
 933              	.L104:
1231:Libraries/STM32F10x_StdPeriph_Driver/src/stm32f10x_rcc.c ****   }
1232:Libraries/STM32F10x_StdPeriph_Driver/src/stm32f10x_rcc.c ****   else
1233:Libraries/STM32F10x_StdPeriph_Driver/src/stm32f10x_rcc.c ****   {
1234:Libraries/STM32F10x_StdPeriph_Driver/src/stm32f10x_rcc.c ****     RCC->APB1RSTR &= ~RCC_APB1Periph;
 934              		.loc 1 1234 0
 935 000a 22EA0000 		bic	r0, r2, r0
 936              	.LVL87:
 937              	.L106:
 938 000e 1861     		str	r0, [r3, #16]
 939 0010 7047     		bx	lr
 940              	.L108:
 941 0012 00BF     		.align	2
 942              	.L107:
 943 0014 00100240 		.word	1073876992
 944              		.cfi_endproc
 945              	.LFE53:
 947              		.section	.text.RCC_BackupResetCmd,"ax",%progbits
 948              		.align	1
 949              		.global	RCC_BackupResetCmd
 950              		.thumb
 951              		.thumb_func
 953              	RCC_BackupResetCmd:
 954              	.LFB54:
1235:Libraries/STM32F10x_StdPeriph_Driver/src/stm32f10x_rcc.c ****   }
1236:Libraries/STM32F10x_StdPeriph_Driver/src/stm32f10x_rcc.c **** }
1237:Libraries/STM32F10x_StdPeriph_Driver/src/stm32f10x_rcc.c **** 
1238:Libraries/STM32F10x_StdPeriph_Driver/src/stm32f10x_rcc.c **** /**
1239:Libraries/STM32F10x_StdPeriph_Driver/src/stm32f10x_rcc.c ****   * @brief  Forces or releases the Backup domain reset.
1240:Libraries/STM32F10x_StdPeriph_Driver/src/stm32f10x_rcc.c ****   * @param  NewState: new state of the Backup domain reset.
1241:Libraries/STM32F10x_StdPeriph_Driver/src/stm32f10x_rcc.c ****   *   This parameter can be: ENABLE or DISABLE.
1242:Libraries/STM32F10x_StdPeriph_Driver/src/stm32f10x_rcc.c ****   * @retval None
1243:Libraries/STM32F10x_StdPeriph_Driver/src/stm32f10x_rcc.c ****   */
1244:Libraries/STM32F10x_StdPeriph_Driver/src/stm32f10x_rcc.c **** void RCC_BackupResetCmd(FunctionalState NewState)
1245:Libraries/STM32F10x_StdPeriph_Driver/src/stm32f10x_rcc.c **** {
 955              		.loc 1 1245 0
 956              		.cfi_startproc
 957              		@ args = 0, pretend = 0, frame = 0
 958              		@ frame_needed = 0, uses_anonymous_args = 0
 959              		@ link register save eliminated.
 960              	.LVL88:
1246:Libraries/STM32F10x_StdPeriph_Driver/src/stm32f10x_rcc.c ****   /* Check the parameters */
1247:Libraries/STM32F10x_StdPeriph_Driver/src/stm32f10x_rcc.c ****   assert_param(IS_FUNCTIONAL_STATE(NewState));
1248:Libraries/STM32F10x_StdPeriph_Driver/src/stm32f10x_rcc.c ****   *(__IO uint32_t *) BDCR_BDRST_BB = (uint32_t)NewState;
 961              		.loc 1 1248 0
 962 0000 014B     		ldr	r3, .L110
 963 0002 1860     		str	r0, [r3]
 964 0004 7047     		bx	lr
 965              	.L111:
 966 0006 00BF     		.align	2
 967              	.L110:
 968 0008 40044242 		.word	1111622720
 969              		.cfi_endproc
 970              	.LFE54:
 972              		.section	.text.RCC_ClockSecuritySystemCmd,"ax",%progbits
 973              		.align	1
 974              		.global	RCC_ClockSecuritySystemCmd
 975              		.thumb
 976              		.thumb_func
 978              	RCC_ClockSecuritySystemCmd:
 979              	.LFB55:
1249:Libraries/STM32F10x_StdPeriph_Driver/src/stm32f10x_rcc.c **** }
1250:Libraries/STM32F10x_StdPeriph_Driver/src/stm32f10x_rcc.c **** 
1251:Libraries/STM32F10x_StdPeriph_Driver/src/stm32f10x_rcc.c **** /**
1252:Libraries/STM32F10x_StdPeriph_Driver/src/stm32f10x_rcc.c ****   * @brief  Enables or disables the Clock Security System.
1253:Libraries/STM32F10x_StdPeriph_Driver/src/stm32f10x_rcc.c ****   * @param  NewState: new state of the Clock Security System..
1254:Libraries/STM32F10x_StdPeriph_Driver/src/stm32f10x_rcc.c ****   *   This parameter can be: ENABLE or DISABLE.
1255:Libraries/STM32F10x_StdPeriph_Driver/src/stm32f10x_rcc.c ****   * @retval None
1256:Libraries/STM32F10x_StdPeriph_Driver/src/stm32f10x_rcc.c ****   */
1257:Libraries/STM32F10x_StdPeriph_Driver/src/stm32f10x_rcc.c **** void RCC_ClockSecuritySystemCmd(FunctionalState NewState)
1258:Libraries/STM32F10x_StdPeriph_Driver/src/stm32f10x_rcc.c **** {
 980              		.loc 1 1258 0
 981              		.cfi_startproc
 982              		@ args = 0, pretend = 0, frame = 0
 983              		@ frame_needed = 0, uses_anonymous_args = 0
 984              		@ link register save eliminated.
 985              	.LVL89:
1259:Libraries/STM32F10x_StdPeriph_Driver/src/stm32f10x_rcc.c ****   /* Check the parameters */
1260:Libraries/STM32F10x_StdPeriph_Driver/src/stm32f10x_rcc.c ****   assert_param(IS_FUNCTIONAL_STATE(NewState));
1261:Libraries/STM32F10x_StdPeriph_Driver/src/stm32f10x_rcc.c ****   *(__IO uint32_t *) CR_CSSON_BB = (uint32_t)NewState;
 986              		.loc 1 1261 0
 987 0000 014B     		ldr	r3, .L113
 988 0002 1860     		str	r0, [r3]
 989 0004 7047     		bx	lr
 990              	.L114:
 991 0006 00BF     		.align	2
 992              	.L113:
 993 0008 4C004242 		.word	1111621708
 994              		.cfi_endproc
 995              	.LFE55:
 997              		.section	.text.RCC_MCOConfig,"ax",%progbits
 998              		.align	1
 999              		.global	RCC_MCOConfig
 1000              		.thumb
 1001              		.thumb_func
 1003              	RCC_MCOConfig:
 1004              	.LFB56:
1262:Libraries/STM32F10x_StdPeriph_Driver/src/stm32f10x_rcc.c **** }
1263:Libraries/STM32F10x_StdPeriph_Driver/src/stm32f10x_rcc.c **** 
1264:Libraries/STM32F10x_StdPeriph_Driver/src/stm32f10x_rcc.c **** /**
1265:Libraries/STM32F10x_StdPeriph_Driver/src/stm32f10x_rcc.c ****   * @brief  Selects the clock source to output on MCO pin.
1266:Libraries/STM32F10x_StdPeriph_Driver/src/stm32f10x_rcc.c ****   * @param  RCC_MCO: specifies the clock source to output.
1267:Libraries/STM32F10x_StdPeriph_Driver/src/stm32f10x_rcc.c ****   *   
1268:Libraries/STM32F10x_StdPeriph_Driver/src/stm32f10x_rcc.c ****   *   For @b STM32_Connectivity_line_devices, this parameter can be one of the
1269:Libraries/STM32F10x_StdPeriph_Driver/src/stm32f10x_rcc.c ****   *   following values:       
1270:Libraries/STM32F10x_StdPeriph_Driver/src/stm32f10x_rcc.c ****   *     @arg RCC_MCO_NoClock: No clock selected
1271:Libraries/STM32F10x_StdPeriph_Driver/src/stm32f10x_rcc.c ****   *     @arg RCC_MCO_SYSCLK: System clock selected
1272:Libraries/STM32F10x_StdPeriph_Driver/src/stm32f10x_rcc.c ****   *     @arg RCC_MCO_HSI: HSI oscillator clock selected
1273:Libraries/STM32F10x_StdPeriph_Driver/src/stm32f10x_rcc.c ****   *     @arg RCC_MCO_HSE: HSE oscillator clock selected
1274:Libraries/STM32F10x_StdPeriph_Driver/src/stm32f10x_rcc.c ****   *     @arg RCC_MCO_PLLCLK_Div2: PLL clock divided by 2 selected
1275:Libraries/STM32F10x_StdPeriph_Driver/src/stm32f10x_rcc.c ****   *     @arg RCC_MCO_PLL2CLK: PLL2 clock selected                     
1276:Libraries/STM32F10x_StdPeriph_Driver/src/stm32f10x_rcc.c ****   *     @arg RCC_MCO_PLL3CLK_Div2: PLL3 clock divided by 2 selected   
1277:Libraries/STM32F10x_StdPeriph_Driver/src/stm32f10x_rcc.c ****   *     @arg RCC_MCO_XT1: External 3-25 MHz oscillator clock selected  
1278:Libraries/STM32F10x_StdPeriph_Driver/src/stm32f10x_rcc.c ****   *     @arg RCC_MCO_PLL3CLK: PLL3 clock selected 
1279:Libraries/STM32F10x_StdPeriph_Driver/src/stm32f10x_rcc.c ****   * 
1280:Libraries/STM32F10x_StdPeriph_Driver/src/stm32f10x_rcc.c ****   *   For  @b other_STM32_devices, this parameter can be one of the following values:        
1281:Libraries/STM32F10x_StdPeriph_Driver/src/stm32f10x_rcc.c ****   *     @arg RCC_MCO_NoClock: No clock selected
1282:Libraries/STM32F10x_StdPeriph_Driver/src/stm32f10x_rcc.c ****   *     @arg RCC_MCO_SYSCLK: System clock selected
1283:Libraries/STM32F10x_StdPeriph_Driver/src/stm32f10x_rcc.c ****   *     @arg RCC_MCO_HSI: HSI oscillator clock selected
1284:Libraries/STM32F10x_StdPeriph_Driver/src/stm32f10x_rcc.c ****   *     @arg RCC_MCO_HSE: HSE oscillator clock selected
1285:Libraries/STM32F10x_StdPeriph_Driver/src/stm32f10x_rcc.c ****   *     @arg RCC_MCO_PLLCLK_Div2: PLL clock divided by 2 selected
1286:Libraries/STM32F10x_StdPeriph_Driver/src/stm32f10x_rcc.c ****   *   
1287:Libraries/STM32F10x_StdPeriph_Driver/src/stm32f10x_rcc.c ****   * @retval None
1288:Libraries/STM32F10x_StdPeriph_Driver/src/stm32f10x_rcc.c ****   */
1289:Libraries/STM32F10x_StdPeriph_Driver/src/stm32f10x_rcc.c **** void RCC_MCOConfig(uint8_t RCC_MCO)
1290:Libraries/STM32F10x_StdPeriph_Driver/src/stm32f10x_rcc.c **** {
 1005              		.loc 1 1290 0
 1006              		.cfi_startproc
 1007              		@ args = 0, pretend = 0, frame = 0
 1008              		@ frame_needed = 0, uses_anonymous_args = 0
 1009              		@ link register save eliminated.
 1010              	.LVL90:
1291:Libraries/STM32F10x_StdPeriph_Driver/src/stm32f10x_rcc.c ****   /* Check the parameters */
1292:Libraries/STM32F10x_StdPeriph_Driver/src/stm32f10x_rcc.c ****   assert_param(IS_RCC_MCO(RCC_MCO));
1293:Libraries/STM32F10x_StdPeriph_Driver/src/stm32f10x_rcc.c **** 
1294:Libraries/STM32F10x_StdPeriph_Driver/src/stm32f10x_rcc.c ****   /* Perform Byte access to MCO bits to select the MCO source */
1295:Libraries/STM32F10x_StdPeriph_Driver/src/stm32f10x_rcc.c ****   *(__IO uint8_t *) CFGR_BYTE4_ADDRESS = RCC_MCO;
 1011              		.loc 1 1295 0
 1012 0000 014B     		ldr	r3, .L116
 1013 0002 1870     		strb	r0, [r3]
 1014 0004 7047     		bx	lr
 1015              	.L117:
 1016 0006 00BF     		.align	2
 1017              	.L116:
 1018 0008 07100240 		.word	1073876999
 1019              		.cfi_endproc
 1020              	.LFE56:
 1022              		.section	.text.RCC_GetFlagStatus,"ax",%progbits
 1023              		.align	1
 1024              		.global	RCC_GetFlagStatus
 1025              		.thumb
 1026              		.thumb_func
 1028              	RCC_GetFlagStatus:
 1029              	.LFB57:
1296:Libraries/STM32F10x_StdPeriph_Driver/src/stm32f10x_rcc.c **** }
1297:Libraries/STM32F10x_StdPeriph_Driver/src/stm32f10x_rcc.c **** 
1298:Libraries/STM32F10x_StdPeriph_Driver/src/stm32f10x_rcc.c **** /**
1299:Libraries/STM32F10x_StdPeriph_Driver/src/stm32f10x_rcc.c ****   * @brief  Checks whether the specified RCC flag is set or not.
1300:Libraries/STM32F10x_StdPeriph_Driver/src/stm32f10x_rcc.c ****   * @param  RCC_FLAG: specifies the flag to check.
1301:Libraries/STM32F10x_StdPeriph_Driver/src/stm32f10x_rcc.c ****   *   
1302:Libraries/STM32F10x_StdPeriph_Driver/src/stm32f10x_rcc.c ****   *   For @b STM32_Connectivity_line_devices, this parameter can be one of the
1303:Libraries/STM32F10x_StdPeriph_Driver/src/stm32f10x_rcc.c ****   *   following values:
1304:Libraries/STM32F10x_StdPeriph_Driver/src/stm32f10x_rcc.c ****   *     @arg RCC_FLAG_HSIRDY: HSI oscillator clock ready
1305:Libraries/STM32F10x_StdPeriph_Driver/src/stm32f10x_rcc.c ****   *     @arg RCC_FLAG_HSERDY: HSE oscillator clock ready
1306:Libraries/STM32F10x_StdPeriph_Driver/src/stm32f10x_rcc.c ****   *     @arg RCC_FLAG_PLLRDY: PLL clock ready
1307:Libraries/STM32F10x_StdPeriph_Driver/src/stm32f10x_rcc.c ****   *     @arg RCC_FLAG_PLL2RDY: PLL2 clock ready      
1308:Libraries/STM32F10x_StdPeriph_Driver/src/stm32f10x_rcc.c ****   *     @arg RCC_FLAG_PLL3RDY: PLL3 clock ready                           
1309:Libraries/STM32F10x_StdPeriph_Driver/src/stm32f10x_rcc.c ****   *     @arg RCC_FLAG_LSERDY: LSE oscillator clock ready
1310:Libraries/STM32F10x_StdPeriph_Driver/src/stm32f10x_rcc.c ****   *     @arg RCC_FLAG_LSIRDY: LSI oscillator clock ready
1311:Libraries/STM32F10x_StdPeriph_Driver/src/stm32f10x_rcc.c ****   *     @arg RCC_FLAG_PINRST: Pin reset
1312:Libraries/STM32F10x_StdPeriph_Driver/src/stm32f10x_rcc.c ****   *     @arg RCC_FLAG_PORRST: POR/PDR reset
1313:Libraries/STM32F10x_StdPeriph_Driver/src/stm32f10x_rcc.c ****   *     @arg RCC_FLAG_SFTRST: Software reset
1314:Libraries/STM32F10x_StdPeriph_Driver/src/stm32f10x_rcc.c ****   *     @arg RCC_FLAG_IWDGRST: Independent Watchdog reset
1315:Libraries/STM32F10x_StdPeriph_Driver/src/stm32f10x_rcc.c ****   *     @arg RCC_FLAG_WWDGRST: Window Watchdog reset
1316:Libraries/STM32F10x_StdPeriph_Driver/src/stm32f10x_rcc.c ****   *     @arg RCC_FLAG_LPWRRST: Low Power reset
1317:Libraries/STM32F10x_StdPeriph_Driver/src/stm32f10x_rcc.c ****   * 
1318:Libraries/STM32F10x_StdPeriph_Driver/src/stm32f10x_rcc.c ****   *   For @b other_STM32_devices, this parameter can be one of the following values:        
1319:Libraries/STM32F10x_StdPeriph_Driver/src/stm32f10x_rcc.c ****   *     @arg RCC_FLAG_HSIRDY: HSI oscillator clock ready
1320:Libraries/STM32F10x_StdPeriph_Driver/src/stm32f10x_rcc.c ****   *     @arg RCC_FLAG_HSERDY: HSE oscillator clock ready
1321:Libraries/STM32F10x_StdPeriph_Driver/src/stm32f10x_rcc.c ****   *     @arg RCC_FLAG_PLLRDY: PLL clock ready
1322:Libraries/STM32F10x_StdPeriph_Driver/src/stm32f10x_rcc.c ****   *     @arg RCC_FLAG_LSERDY: LSE oscillator clock ready
1323:Libraries/STM32F10x_StdPeriph_Driver/src/stm32f10x_rcc.c ****   *     @arg RCC_FLAG_LSIRDY: LSI oscillator clock ready
1324:Libraries/STM32F10x_StdPeriph_Driver/src/stm32f10x_rcc.c ****   *     @arg RCC_FLAG_PINRST: Pin reset
1325:Libraries/STM32F10x_StdPeriph_Driver/src/stm32f10x_rcc.c ****   *     @arg RCC_FLAG_PORRST: POR/PDR reset
1326:Libraries/STM32F10x_StdPeriph_Driver/src/stm32f10x_rcc.c ****   *     @arg RCC_FLAG_SFTRST: Software reset
1327:Libraries/STM32F10x_StdPeriph_Driver/src/stm32f10x_rcc.c ****   *     @arg RCC_FLAG_IWDGRST: Independent Watchdog reset
1328:Libraries/STM32F10x_StdPeriph_Driver/src/stm32f10x_rcc.c ****   *     @arg RCC_FLAG_WWDGRST: Window Watchdog reset
1329:Libraries/STM32F10x_StdPeriph_Driver/src/stm32f10x_rcc.c ****   *     @arg RCC_FLAG_LPWRRST: Low Power reset
1330:Libraries/STM32F10x_StdPeriph_Driver/src/stm32f10x_rcc.c ****   *   
1331:Libraries/STM32F10x_StdPeriph_Driver/src/stm32f10x_rcc.c ****   * @retval The new state of RCC_FLAG (SET or RESET).
1332:Libraries/STM32F10x_StdPeriph_Driver/src/stm32f10x_rcc.c ****   */
1333:Libraries/STM32F10x_StdPeriph_Driver/src/stm32f10x_rcc.c **** FlagStatus RCC_GetFlagStatus(uint8_t RCC_FLAG)
1334:Libraries/STM32F10x_StdPeriph_Driver/src/stm32f10x_rcc.c **** {
 1030              		.loc 1 1334 0
 1031              		.cfi_startproc
 1032              		@ args = 0, pretend = 0, frame = 0
 1033              		@ frame_needed = 0, uses_anonymous_args = 0
 1034              		@ link register save eliminated.
 1035              	.LVL91:
1335:Libraries/STM32F10x_StdPeriph_Driver/src/stm32f10x_rcc.c ****   uint32_t tmp = 0;
1336:Libraries/STM32F10x_StdPeriph_Driver/src/stm32f10x_rcc.c ****   uint32_t statusreg = 0;
1337:Libraries/STM32F10x_StdPeriph_Driver/src/stm32f10x_rcc.c ****   FlagStatus bitstatus = RESET;
1338:Libraries/STM32F10x_StdPeriph_Driver/src/stm32f10x_rcc.c ****   /* Check the parameters */
1339:Libraries/STM32F10x_StdPeriph_Driver/src/stm32f10x_rcc.c ****   assert_param(IS_RCC_FLAG(RCC_FLAG));
1340:Libraries/STM32F10x_StdPeriph_Driver/src/stm32f10x_rcc.c **** 
1341:Libraries/STM32F10x_StdPeriph_Driver/src/stm32f10x_rcc.c ****   /* Get the RCC register index */
1342:Libraries/STM32F10x_StdPeriph_Driver/src/stm32f10x_rcc.c ****   tmp = RCC_FLAG >> 5;
 1036              		.loc 1 1342 0
 1037 0000 4209     		lsrs	r2, r0, #5
 1038              	.LVL92:
1343:Libraries/STM32F10x_StdPeriph_Driver/src/stm32f10x_rcc.c ****   if (tmp == 1)               /* The flag to check is in CR register */
 1039              		.loc 1 1343 0
 1040 0002 012A     		cmp	r2, #1
 1041 0004 074B     		ldr	r3, .L122
 1042 0006 01D1     		bne	.L119
1344:Libraries/STM32F10x_StdPeriph_Driver/src/stm32f10x_rcc.c ****   {
1345:Libraries/STM32F10x_StdPeriph_Driver/src/stm32f10x_rcc.c ****     statusreg = RCC->CR;
 1043              		.loc 1 1345 0
 1044 0008 1B68     		ldr	r3, [r3]
 1045              	.LVL93:
 1046 000a 03E0     		b	.L120
 1047              	.LVL94:
 1048              	.L119:
1346:Libraries/STM32F10x_StdPeriph_Driver/src/stm32f10x_rcc.c ****   }
1347:Libraries/STM32F10x_StdPeriph_Driver/src/stm32f10x_rcc.c ****   else if (tmp == 2)          /* The flag to check is in BDCR register */
 1049              		.loc 1 1347 0
 1050 000c 022A     		cmp	r2, #2
1348:Libraries/STM32F10x_StdPeriph_Driver/src/stm32f10x_rcc.c ****   {
1349:Libraries/STM32F10x_StdPeriph_Driver/src/stm32f10x_rcc.c ****     statusreg = RCC->BDCR;
 1051              		.loc 1 1349 0
 1052 000e 0CBF     		ite	eq
 1053 0010 1B6A     		ldreq	r3, [r3, #32]
 1054              	.LVL95:
1350:Libraries/STM32F10x_StdPeriph_Driver/src/stm32f10x_rcc.c ****   }
1351:Libraries/STM32F10x_StdPeriph_Driver/src/stm32f10x_rcc.c ****   else                       /* The flag to check is in CSR register */
1352:Libraries/STM32F10x_StdPeriph_Driver/src/stm32f10x_rcc.c ****   {
1353:Libraries/STM32F10x_StdPeriph_Driver/src/stm32f10x_rcc.c ****     statusreg = RCC->CSR;
 1055              		.loc 1 1353 0
 1056 0012 5B6A     		ldrne	r3, [r3, #36]
 1057              	.LVL96:
 1058              	.L120:
1354:Libraries/STM32F10x_StdPeriph_Driver/src/stm32f10x_rcc.c ****   }
1355:Libraries/STM32F10x_StdPeriph_Driver/src/stm32f10x_rcc.c **** 
1356:Libraries/STM32F10x_StdPeriph_Driver/src/stm32f10x_rcc.c ****   /* Get the flag position */
1357:Libraries/STM32F10x_StdPeriph_Driver/src/stm32f10x_rcc.c ****   tmp = RCC_FLAG & FLAG_Mask;
1358:Libraries/STM32F10x_StdPeriph_Driver/src/stm32f10x_rcc.c ****   if ((statusreg & ((uint32_t)1 << tmp)) != (uint32_t)RESET)
 1059              		.loc 1 1358 0
 1060 0014 00F01F00 		and	r0, r0, #31
 1061              	.LVL97:
 1062 0018 23FA00F0 		lsr	r0, r3, r0
1359:Libraries/STM32F10x_StdPeriph_Driver/src/stm32f10x_rcc.c ****   {
1360:Libraries/STM32F10x_StdPeriph_Driver/src/stm32f10x_rcc.c ****     bitstatus = SET;
1361:Libraries/STM32F10x_StdPeriph_Driver/src/stm32f10x_rcc.c ****   }
1362:Libraries/STM32F10x_StdPeriph_Driver/src/stm32f10x_rcc.c ****   else
1363:Libraries/STM32F10x_StdPeriph_Driver/src/stm32f10x_rcc.c ****   {
1364:Libraries/STM32F10x_StdPeriph_Driver/src/stm32f10x_rcc.c ****     bitstatus = RESET;
1365:Libraries/STM32F10x_StdPeriph_Driver/src/stm32f10x_rcc.c ****   }
1366:Libraries/STM32F10x_StdPeriph_Driver/src/stm32f10x_rcc.c **** 
1367:Libraries/STM32F10x_StdPeriph_Driver/src/stm32f10x_rcc.c ****   /* Return the flag status */
1368:Libraries/STM32F10x_StdPeriph_Driver/src/stm32f10x_rcc.c ****   return bitstatus;
1369:Libraries/STM32F10x_StdPeriph_Driver/src/stm32f10x_rcc.c **** }
 1063              		.loc 1 1369 0
 1064 001c 00F00100 		and	r0, r0, #1
 1065 0020 7047     		bx	lr
 1066              	.L123:
 1067 0022 00BF     		.align	2
 1068              	.L122:
 1069 0024 00100240 		.word	1073876992
 1070              		.cfi_endproc
 1071              	.LFE57:
 1073              		.section	.text.RCC_WaitForHSEStartUp,"ax",%progbits
 1074              		.align	1
 1075              		.global	RCC_WaitForHSEStartUp
 1076              		.thumb
 1077              		.thumb_func
 1079              	RCC_WaitForHSEStartUp:
 1080              	.LFB31:
 314:Libraries/STM32F10x_StdPeriph_Driver/src/stm32f10x_rcc.c ****   __IO uint32_t StartUpCounter = 0;
 1081              		.loc 1 314 0
 1082              		.cfi_startproc
 1083              		@ args = 0, pretend = 0, frame = 8
 1084              		@ frame_needed = 0, uses_anonymous_args = 0
 1085 0000 13B5     		push	{r0, r1, r4, lr}
 1086              		.cfi_def_cfa_offset 16
 1087              		.cfi_offset 4, -8
 1088              		.cfi_offset 14, -4
 315:Libraries/STM32F10x_StdPeriph_Driver/src/stm32f10x_rcc.c ****   ErrorStatus status = ERROR;
 1089              		.loc 1 315 0
 1090 0002 0023     		movs	r3, #0
 1091 0004 0193     		str	r3, [sp, #4]
 1092              	.LVL98:
 1093              	.L126:
 322:Libraries/STM32F10x_StdPeriph_Driver/src/stm32f10x_rcc.c ****     StartUpCounter++;  
 1094              		.loc 1 322 0 discriminator 2
 1095 0006 3120     		movs	r0, #49
 1096 0008 084C     		ldr	r4, .L132
 1097 000a A047     		blx	r4
 1098              	.LVL99:
 323:Libraries/STM32F10x_StdPeriph_Driver/src/stm32f10x_rcc.c ****   } while((StartUpCounter != HSEStartUp_TimeOut) && (HSEStatus == RESET));
 1099              		.loc 1 323 0 discriminator 2
 1100 000c 019B     		ldr	r3, [sp, #4]
 1101 000e 0133     		adds	r3, r3, #1
 1102 0010 0193     		str	r3, [sp, #4]
 324:Libraries/STM32F10x_StdPeriph_Driver/src/stm32f10x_rcc.c ****   
 1103              		.loc 1 324 0 discriminator 2
 1104 0012 019B     		ldr	r3, [sp, #4]
 1105 0014 B3F5A06F 		cmp	r3, #1280
 1106 0018 01D0     		beq	.L125
 324:Libraries/STM32F10x_StdPeriph_Driver/src/stm32f10x_rcc.c ****   
 1107              		.loc 1 324 0 is_stmt 0 discriminator 1
 1108 001a 0028     		cmp	r0, #0
 1109 001c F3D0     		beq	.L126
 1110              	.L125:
 326:Libraries/STM32F10x_StdPeriph_Driver/src/stm32f10x_rcc.c ****   {
 1111              		.loc 1 326 0 is_stmt 1
 1112 001e 3120     		movs	r0, #49
 1113              	.LVL100:
 1114 0020 A047     		blx	r4
 1115              	.LVL101:
 335:Libraries/STM32F10x_StdPeriph_Driver/src/stm32f10x_rcc.c **** 
 1116              		.loc 1 335 0
 1117 0022 0030     		adds	r0, r0, #0
 1118              	.LVL102:
 1119 0024 18BF     		it	ne
 1120 0026 0120     		movne	r0, #1
 1121 0028 02B0     		add	sp, sp, #8
 1122              		.cfi_def_cfa_offset 8
 1123              		@ sp needed
 1124 002a 10BD     		pop	{r4, pc}
 1125              	.L133:
 1126              		.align	2
 1127              	.L132:
 1128 002c 00000000 		.word	RCC_GetFlagStatus
 1129              		.cfi_endproc
 1130              	.LFE31:
 1132              		.section	.text.RCC_ClearFlag,"ax",%progbits
 1133              		.align	1
 1134              		.global	RCC_ClearFlag
 1135              		.thumb
 1136              		.thumb_func
 1138              	RCC_ClearFlag:
 1139              	.LFB58:
1370:Libraries/STM32F10x_StdPeriph_Driver/src/stm32f10x_rcc.c **** 
1371:Libraries/STM32F10x_StdPeriph_Driver/src/stm32f10x_rcc.c **** /**
1372:Libraries/STM32F10x_StdPeriph_Driver/src/stm32f10x_rcc.c ****   * @brief  Clears the RCC reset flags.
1373:Libraries/STM32F10x_StdPeriph_Driver/src/stm32f10x_rcc.c ****   * @note   The reset flags are: RCC_FLAG_PINRST, RCC_FLAG_PORRST, RCC_FLAG_SFTRST,
1374:Libraries/STM32F10x_StdPeriph_Driver/src/stm32f10x_rcc.c ****   *   RCC_FLAG_IWDGRST, RCC_FLAG_WWDGRST, RCC_FLAG_LPWRRST
1375:Libraries/STM32F10x_StdPeriph_Driver/src/stm32f10x_rcc.c ****   * @param  None
1376:Libraries/STM32F10x_StdPeriph_Driver/src/stm32f10x_rcc.c ****   * @retval None
1377:Libraries/STM32F10x_StdPeriph_Driver/src/stm32f10x_rcc.c ****   */
1378:Libraries/STM32F10x_StdPeriph_Driver/src/stm32f10x_rcc.c **** void RCC_ClearFlag(void)
1379:Libraries/STM32F10x_StdPeriph_Driver/src/stm32f10x_rcc.c **** {
 1140              		.loc 1 1379 0
 1141              		.cfi_startproc
 1142              		@ args = 0, pretend = 0, frame = 0
 1143              		@ frame_needed = 0, uses_anonymous_args = 0
 1144              		@ link register save eliminated.
1380:Libraries/STM32F10x_StdPeriph_Driver/src/stm32f10x_rcc.c ****   /* Set RMVF bit to clear the reset flags */
1381:Libraries/STM32F10x_StdPeriph_Driver/src/stm32f10x_rcc.c ****   RCC->CSR |= CSR_RMVF_Set;
 1145              		.loc 1 1381 0
 1146 0000 024A     		ldr	r2, .L135
 1147 0002 536A     		ldr	r3, [r2, #36]
 1148 0004 43F08073 		orr	r3, r3, #16777216
 1149 0008 5362     		str	r3, [r2, #36]
 1150 000a 7047     		bx	lr
 1151              	.L136:
 1152              		.align	2
 1153              	.L135:
 1154 000c 00100240 		.word	1073876992
 1155              		.cfi_endproc
 1156              	.LFE58:
 1158              		.section	.text.RCC_GetITStatus,"ax",%progbits
 1159              		.align	1
 1160              		.global	RCC_GetITStatus
 1161              		.thumb
 1162              		.thumb_func
 1164              	RCC_GetITStatus:
 1165              	.LFB59:
1382:Libraries/STM32F10x_StdPeriph_Driver/src/stm32f10x_rcc.c **** }
1383:Libraries/STM32F10x_StdPeriph_Driver/src/stm32f10x_rcc.c **** 
1384:Libraries/STM32F10x_StdPeriph_Driver/src/stm32f10x_rcc.c **** /**
1385:Libraries/STM32F10x_StdPeriph_Driver/src/stm32f10x_rcc.c ****   * @brief  Checks whether the specified RCC interrupt has occurred or not.
1386:Libraries/STM32F10x_StdPeriph_Driver/src/stm32f10x_rcc.c ****   * @param  RCC_IT: specifies the RCC interrupt source to check.
1387:Libraries/STM32F10x_StdPeriph_Driver/src/stm32f10x_rcc.c ****   *   
1388:Libraries/STM32F10x_StdPeriph_Driver/src/stm32f10x_rcc.c ****   *   For @b STM32_Connectivity_line_devices, this parameter can be one of the
1389:Libraries/STM32F10x_StdPeriph_Driver/src/stm32f10x_rcc.c ****   *   following values:
1390:Libraries/STM32F10x_StdPeriph_Driver/src/stm32f10x_rcc.c ****   *     @arg RCC_IT_LSIRDY: LSI ready interrupt
1391:Libraries/STM32F10x_StdPeriph_Driver/src/stm32f10x_rcc.c ****   *     @arg RCC_IT_LSERDY: LSE ready interrupt
1392:Libraries/STM32F10x_StdPeriph_Driver/src/stm32f10x_rcc.c ****   *     @arg RCC_IT_HSIRDY: HSI ready interrupt
1393:Libraries/STM32F10x_StdPeriph_Driver/src/stm32f10x_rcc.c ****   *     @arg RCC_IT_HSERDY: HSE ready interrupt
1394:Libraries/STM32F10x_StdPeriph_Driver/src/stm32f10x_rcc.c ****   *     @arg RCC_IT_PLLRDY: PLL ready interrupt
1395:Libraries/STM32F10x_StdPeriph_Driver/src/stm32f10x_rcc.c ****   *     @arg RCC_IT_PLL2RDY: PLL2 ready interrupt 
1396:Libraries/STM32F10x_StdPeriph_Driver/src/stm32f10x_rcc.c ****   *     @arg RCC_IT_PLL3RDY: PLL3 ready interrupt                      
1397:Libraries/STM32F10x_StdPeriph_Driver/src/stm32f10x_rcc.c ****   *     @arg RCC_IT_CSS: Clock Security System interrupt
1398:Libraries/STM32F10x_StdPeriph_Driver/src/stm32f10x_rcc.c ****   * 
1399:Libraries/STM32F10x_StdPeriph_Driver/src/stm32f10x_rcc.c ****   *   For @b other_STM32_devices, this parameter can be one of the following values:        
1400:Libraries/STM32F10x_StdPeriph_Driver/src/stm32f10x_rcc.c ****   *     @arg RCC_IT_LSIRDY: LSI ready interrupt
1401:Libraries/STM32F10x_StdPeriph_Driver/src/stm32f10x_rcc.c ****   *     @arg RCC_IT_LSERDY: LSE ready interrupt
1402:Libraries/STM32F10x_StdPeriph_Driver/src/stm32f10x_rcc.c ****   *     @arg RCC_IT_HSIRDY: HSI ready interrupt
1403:Libraries/STM32F10x_StdPeriph_Driver/src/stm32f10x_rcc.c ****   *     @arg RCC_IT_HSERDY: HSE ready interrupt
1404:Libraries/STM32F10x_StdPeriph_Driver/src/stm32f10x_rcc.c ****   *     @arg RCC_IT_PLLRDY: PLL ready interrupt
1405:Libraries/STM32F10x_StdPeriph_Driver/src/stm32f10x_rcc.c ****   *     @arg RCC_IT_CSS: Clock Security System interrupt
1406:Libraries/STM32F10x_StdPeriph_Driver/src/stm32f10x_rcc.c ****   *   
1407:Libraries/STM32F10x_StdPeriph_Driver/src/stm32f10x_rcc.c ****   * @retval The new state of RCC_IT (SET or RESET).
1408:Libraries/STM32F10x_StdPeriph_Driver/src/stm32f10x_rcc.c ****   */
1409:Libraries/STM32F10x_StdPeriph_Driver/src/stm32f10x_rcc.c **** ITStatus RCC_GetITStatus(uint8_t RCC_IT)
1410:Libraries/STM32F10x_StdPeriph_Driver/src/stm32f10x_rcc.c **** {
 1166              		.loc 1 1410 0
 1167              		.cfi_startproc
 1168              		@ args = 0, pretend = 0, frame = 0
 1169              		@ frame_needed = 0, uses_anonymous_args = 0
 1170              		@ link register save eliminated.
 1171              	.LVL103:
1411:Libraries/STM32F10x_StdPeriph_Driver/src/stm32f10x_rcc.c ****   ITStatus bitstatus = RESET;
1412:Libraries/STM32F10x_StdPeriph_Driver/src/stm32f10x_rcc.c ****   /* Check the parameters */
1413:Libraries/STM32F10x_StdPeriph_Driver/src/stm32f10x_rcc.c ****   assert_param(IS_RCC_GET_IT(RCC_IT));
1414:Libraries/STM32F10x_StdPeriph_Driver/src/stm32f10x_rcc.c **** 
1415:Libraries/STM32F10x_StdPeriph_Driver/src/stm32f10x_rcc.c ****   /* Check the status of the specified RCC interrupt */
1416:Libraries/STM32F10x_StdPeriph_Driver/src/stm32f10x_rcc.c ****   if ((RCC->CIR & RCC_IT) != (uint32_t)RESET)
 1172              		.loc 1 1416 0
 1173 0000 034B     		ldr	r3, .L138
 1174 0002 9B68     		ldr	r3, [r3, #8]
 1175              	.LVL104:
 1176 0004 1842     		tst	r0, r3
1417:Libraries/STM32F10x_StdPeriph_Driver/src/stm32f10x_rcc.c ****   {
1418:Libraries/STM32F10x_StdPeriph_Driver/src/stm32f10x_rcc.c ****     bitstatus = SET;
1419:Libraries/STM32F10x_StdPeriph_Driver/src/stm32f10x_rcc.c ****   }
1420:Libraries/STM32F10x_StdPeriph_Driver/src/stm32f10x_rcc.c ****   else
1421:Libraries/STM32F10x_StdPeriph_Driver/src/stm32f10x_rcc.c ****   {
1422:Libraries/STM32F10x_StdPeriph_Driver/src/stm32f10x_rcc.c ****     bitstatus = RESET;
1423:Libraries/STM32F10x_StdPeriph_Driver/src/stm32f10x_rcc.c ****   }
1424:Libraries/STM32F10x_StdPeriph_Driver/src/stm32f10x_rcc.c **** 
1425:Libraries/STM32F10x_StdPeriph_Driver/src/stm32f10x_rcc.c ****   /* Return the RCC_IT status */
1426:Libraries/STM32F10x_StdPeriph_Driver/src/stm32f10x_rcc.c ****   return  bitstatus;
1427:Libraries/STM32F10x_StdPeriph_Driver/src/stm32f10x_rcc.c **** }
 1177              		.loc 1 1427 0
 1178 0006 14BF     		ite	ne
 1179 0008 0120     		movne	r0, #1
 1180              	.LVL105:
 1181 000a 0020     		moveq	r0, #0
 1182 000c 7047     		bx	lr
 1183              	.L139:
 1184 000e 00BF     		.align	2
 1185              	.L138:
 1186 0010 00100240 		.word	1073876992
 1187              		.cfi_endproc
 1188              	.LFE59:
 1190              		.section	.text.RCC_ClearITPendingBit,"ax",%progbits
 1191              		.align	1
 1192              		.global	RCC_ClearITPendingBit
 1193              		.thumb
 1194              		.thumb_func
 1196              	RCC_ClearITPendingBit:
 1197              	.LFB60:
1428:Libraries/STM32F10x_StdPeriph_Driver/src/stm32f10x_rcc.c **** 
1429:Libraries/STM32F10x_StdPeriph_Driver/src/stm32f10x_rcc.c **** /**
1430:Libraries/STM32F10x_StdPeriph_Driver/src/stm32f10x_rcc.c ****   * @brief  Clears the RCCs interrupt pending bits.
1431:Libraries/STM32F10x_StdPeriph_Driver/src/stm32f10x_rcc.c ****   * @param  RCC_IT: specifies the interrupt pending bit to clear.
1432:Libraries/STM32F10x_StdPeriph_Driver/src/stm32f10x_rcc.c ****   *   
1433:Libraries/STM32F10x_StdPeriph_Driver/src/stm32f10x_rcc.c ****   *   For @b STM32_Connectivity_line_devices, this parameter can be any combination
1434:Libraries/STM32F10x_StdPeriph_Driver/src/stm32f10x_rcc.c ****   *   of the following values:
1435:Libraries/STM32F10x_StdPeriph_Driver/src/stm32f10x_rcc.c ****   *     @arg RCC_IT_LSIRDY: LSI ready interrupt
1436:Libraries/STM32F10x_StdPeriph_Driver/src/stm32f10x_rcc.c ****   *     @arg RCC_IT_LSERDY: LSE ready interrupt
1437:Libraries/STM32F10x_StdPeriph_Driver/src/stm32f10x_rcc.c ****   *     @arg RCC_IT_HSIRDY: HSI ready interrupt
1438:Libraries/STM32F10x_StdPeriph_Driver/src/stm32f10x_rcc.c ****   *     @arg RCC_IT_HSERDY: HSE ready interrupt
1439:Libraries/STM32F10x_StdPeriph_Driver/src/stm32f10x_rcc.c ****   *     @arg RCC_IT_PLLRDY: PLL ready interrupt
1440:Libraries/STM32F10x_StdPeriph_Driver/src/stm32f10x_rcc.c ****   *     @arg RCC_IT_PLL2RDY: PLL2 ready interrupt 
1441:Libraries/STM32F10x_StdPeriph_Driver/src/stm32f10x_rcc.c ****   *     @arg RCC_IT_PLL3RDY: PLL3 ready interrupt                      
1442:Libraries/STM32F10x_StdPeriph_Driver/src/stm32f10x_rcc.c ****   *     @arg RCC_IT_CSS: Clock Security System interrupt
1443:Libraries/STM32F10x_StdPeriph_Driver/src/stm32f10x_rcc.c ****   * 
1444:Libraries/STM32F10x_StdPeriph_Driver/src/stm32f10x_rcc.c ****   *   For @b other_STM32_devices, this parameter can be any combination of the
1445:Libraries/STM32F10x_StdPeriph_Driver/src/stm32f10x_rcc.c ****   *   following values:        
1446:Libraries/STM32F10x_StdPeriph_Driver/src/stm32f10x_rcc.c ****   *     @arg RCC_IT_LSIRDY: LSI ready interrupt
1447:Libraries/STM32F10x_StdPeriph_Driver/src/stm32f10x_rcc.c ****   *     @arg RCC_IT_LSERDY: LSE ready interrupt
1448:Libraries/STM32F10x_StdPeriph_Driver/src/stm32f10x_rcc.c ****   *     @arg RCC_IT_HSIRDY: HSI ready interrupt
1449:Libraries/STM32F10x_StdPeriph_Driver/src/stm32f10x_rcc.c ****   *     @arg RCC_IT_HSERDY: HSE ready interrupt
1450:Libraries/STM32F10x_StdPeriph_Driver/src/stm32f10x_rcc.c ****   *     @arg RCC_IT_PLLRDY: PLL ready interrupt
1451:Libraries/STM32F10x_StdPeriph_Driver/src/stm32f10x_rcc.c ****   *   
1452:Libraries/STM32F10x_StdPeriph_Driver/src/stm32f10x_rcc.c ****   *     @arg RCC_IT_CSS: Clock Security System interrupt
1453:Libraries/STM32F10x_StdPeriph_Driver/src/stm32f10x_rcc.c ****   * @retval None
1454:Libraries/STM32F10x_StdPeriph_Driver/src/stm32f10x_rcc.c ****   */
1455:Libraries/STM32F10x_StdPeriph_Driver/src/stm32f10x_rcc.c **** void RCC_ClearITPendingBit(uint8_t RCC_IT)
1456:Libraries/STM32F10x_StdPeriph_Driver/src/stm32f10x_rcc.c **** {
 1198              		.loc 1 1456 0
 1199              		.cfi_startproc
 1200              		@ args = 0, pretend = 0, frame = 0
 1201              		@ frame_needed = 0, uses_anonymous_args = 0
 1202              		@ link register save eliminated.
 1203              	.LVL106:
1457:Libraries/STM32F10x_StdPeriph_Driver/src/stm32f10x_rcc.c ****   /* Check the parameters */
1458:Libraries/STM32F10x_StdPeriph_Driver/src/stm32f10x_rcc.c ****   assert_param(IS_RCC_CLEAR_IT(RCC_IT));
1459:Libraries/STM32F10x_StdPeriph_Driver/src/stm32f10x_rcc.c **** 
1460:Libraries/STM32F10x_StdPeriph_Driver/src/stm32f10x_rcc.c ****   /* Perform Byte access to RCC_CIR[23:16] bits to clear the selected interrupt
1461:Libraries/STM32F10x_StdPeriph_Driver/src/stm32f10x_rcc.c ****      pending bits */
1462:Libraries/STM32F10x_StdPeriph_Driver/src/stm32f10x_rcc.c ****   *(__IO uint8_t *) CIR_BYTE3_ADDRESS = RCC_IT;
 1204              		.loc 1 1462 0
 1205 0000 014B     		ldr	r3, .L141
 1206 0002 1870     		strb	r0, [r3]
 1207 0004 7047     		bx	lr
 1208              	.L142:
 1209 0006 00BF     		.align	2
 1210              	.L141:
 1211 0008 0A100240 		.word	1073877002
 1212              		.cfi_endproc
 1213              	.LFE60:
 1215              		.section	.data.ADCPrescTable,"aw",%progbits
 1216              		.set	.LANCHOR1,. + 0
 1219              	ADCPrescTable:
 1220 0000 02       		.byte	2
 1221 0001 04       		.byte	4
 1222 0002 06       		.byte	6
 1223 0003 08       		.byte	8
 1224              		.section	.data.APBAHBPrescTable,"aw",%progbits
 1225              		.set	.LANCHOR0,. + 0
 1228              	APBAHBPrescTable:
 1229 0000 00       		.byte	0
 1230 0001 00       		.byte	0
 1231 0002 00       		.byte	0
 1232 0003 00       		.byte	0
 1233 0004 01       		.byte	1
 1234 0005 02       		.byte	2
 1235 0006 03       		.byte	3
 1236 0007 04       		.byte	4
 1237 0008 01       		.byte	1
 1238 0009 02       		.byte	2
 1239 000a 03       		.byte	3
 1240 000b 04       		.byte	4
 1241 000c 06       		.byte	6
 1242 000d 07       		.byte	7
 1243 000e 08       		.byte	8
 1244 000f 09       		.byte	9
 1245              		.text
 1246              	.Letext0:
 1247              		.file 2 "/usr/include/newlib/machine/_default_types.h"
 1248              		.file 3 "/usr/include/newlib/stdint.h"
 1249              		.file 4 "./Libraries/CMSIS/CM3/DeviceSupport/ST/STM32F10x/stm32f10x.h"
 1250              		.file 5 "./Libraries/STM32F10x_StdPeriph_Driver/inc/stm32f10x_rcc.h"
 1251              		.file 6 "./Libraries/CMSIS/CM3/CoreSupport/core_cm3.h"