   1              		.syntax unified
   2              		.cpu cortex-m3
   3              		.fpu softvfp
   4              		.eabi_attribute 20, 1
   5              		.eabi_attribute 21, 1
   6              		.eabi_attribute 23, 3
   7              		.eabi_attribute 24, 1
   8              		.eabi_attribute 25, 1
   9              		.eabi_attribute 26, 1
  10              		.eabi_attribute 30, 4
  11              		.eabi_attribute 34, 1
  12              		.eabi_attribute 18, 4
  13              		.thumb
  14              		.file	"stm32f10x_adc.c"
  15              		.text
  16              	.Ltext0:
  17              		.cfi_sections	.debug_frame
  18              		.section	.text.ADC_DeInit,"ax",%progbits
  19              		.align	1
  20              		.global	ADC_DeInit
  21              		.thumb
  22              		.thumb_func
  24              	ADC_DeInit:
  25              	.LFB29:
  26              		.file 1 "Libraries/STM32F10x_StdPeriph_Driver/src/stm32f10x_adc.c"
   1:Libraries/STM32F10x_StdPeriph_Driver/src/stm32f10x_adc.c **** /**
   2:Libraries/STM32F10x_StdPeriph_Driver/src/stm32f10x_adc.c ****   ******************************************************************************
   3:Libraries/STM32F10x_StdPeriph_Driver/src/stm32f10x_adc.c ****   * @file    stm32f10x_adc.c
   4:Libraries/STM32F10x_StdPeriph_Driver/src/stm32f10x_adc.c ****   * @author  MCD Application Team
   5:Libraries/STM32F10x_StdPeriph_Driver/src/stm32f10x_adc.c ****   * @version V3.3.0
   6:Libraries/STM32F10x_StdPeriph_Driver/src/stm32f10x_adc.c ****   * @date    04/16/2010
   7:Libraries/STM32F10x_StdPeriph_Driver/src/stm32f10x_adc.c ****   * @brief   This file provides all the ADC firmware functions.
   8:Libraries/STM32F10x_StdPeriph_Driver/src/stm32f10x_adc.c ****   ******************************************************************************
   9:Libraries/STM32F10x_StdPeriph_Driver/src/stm32f10x_adc.c ****   * @copy
  10:Libraries/STM32F10x_StdPeriph_Driver/src/stm32f10x_adc.c ****   *
  11:Libraries/STM32F10x_StdPeriph_Driver/src/stm32f10x_adc.c ****   * THE PRESENT FIRMWARE WHICH IS FOR GUIDANCE ONLY AIMS AT PROVIDING CUSTOMERS
  12:Libraries/STM32F10x_StdPeriph_Driver/src/stm32f10x_adc.c ****   * WITH CODING INFORMATION REGARDING THEIR PRODUCTS IN ORDER FOR THEM TO SAVE
  13:Libraries/STM32F10x_StdPeriph_Driver/src/stm32f10x_adc.c ****   * TIME. AS A RESULT, STMICROELECTRONICS SHALL NOT BE HELD LIABLE FOR ANY
  14:Libraries/STM32F10x_StdPeriph_Driver/src/stm32f10x_adc.c ****   * DIRECT, INDIRECT OR CONSEQUENTIAL DAMAGES WITH RESPECT TO ANY CLAIMS ARISING
  15:Libraries/STM32F10x_StdPeriph_Driver/src/stm32f10x_adc.c ****   * FROM THE CONTENT OF SUCH FIRMWARE AND/OR THE USE MADE BY CUSTOMERS OF THE
  16:Libraries/STM32F10x_StdPeriph_Driver/src/stm32f10x_adc.c ****   * CODING INFORMATION CONTAINED HEREIN IN CONNECTION WITH THEIR PRODUCTS.
  17:Libraries/STM32F10x_StdPeriph_Driver/src/stm32f10x_adc.c ****   *
  18:Libraries/STM32F10x_StdPeriph_Driver/src/stm32f10x_adc.c ****   * <h2><center>&copy; COPYRIGHT 2010 STMicroelectronics</center></h2>
  19:Libraries/STM32F10x_StdPeriph_Driver/src/stm32f10x_adc.c ****   */ 
  20:Libraries/STM32F10x_StdPeriph_Driver/src/stm32f10x_adc.c **** 
  21:Libraries/STM32F10x_StdPeriph_Driver/src/stm32f10x_adc.c **** /* Includes ------------------------------------------------------------------*/
  22:Libraries/STM32F10x_StdPeriph_Driver/src/stm32f10x_adc.c **** #include "stm32f10x_adc.h"
  23:Libraries/STM32F10x_StdPeriph_Driver/src/stm32f10x_adc.c **** #include "stm32f10x_rcc.h"
  24:Libraries/STM32F10x_StdPeriph_Driver/src/stm32f10x_adc.c **** 
  25:Libraries/STM32F10x_StdPeriph_Driver/src/stm32f10x_adc.c **** /** @addtogroup STM32F10x_StdPeriph_Driver
  26:Libraries/STM32F10x_StdPeriph_Driver/src/stm32f10x_adc.c ****   * @{
  27:Libraries/STM32F10x_StdPeriph_Driver/src/stm32f10x_adc.c ****   */
  28:Libraries/STM32F10x_StdPeriph_Driver/src/stm32f10x_adc.c **** 
  29:Libraries/STM32F10x_StdPeriph_Driver/src/stm32f10x_adc.c **** /** @defgroup ADC 
  30:Libraries/STM32F10x_StdPeriph_Driver/src/stm32f10x_adc.c ****   * @brief ADC driver modules
  31:Libraries/STM32F10x_StdPeriph_Driver/src/stm32f10x_adc.c ****   * @{
  32:Libraries/STM32F10x_StdPeriph_Driver/src/stm32f10x_adc.c ****   */
  33:Libraries/STM32F10x_StdPeriph_Driver/src/stm32f10x_adc.c **** 
  34:Libraries/STM32F10x_StdPeriph_Driver/src/stm32f10x_adc.c **** /** @defgroup ADC_Private_TypesDefinitions
  35:Libraries/STM32F10x_StdPeriph_Driver/src/stm32f10x_adc.c ****   * @{
  36:Libraries/STM32F10x_StdPeriph_Driver/src/stm32f10x_adc.c ****   */
  37:Libraries/STM32F10x_StdPeriph_Driver/src/stm32f10x_adc.c **** 
  38:Libraries/STM32F10x_StdPeriph_Driver/src/stm32f10x_adc.c **** /**
  39:Libraries/STM32F10x_StdPeriph_Driver/src/stm32f10x_adc.c ****   * @}
  40:Libraries/STM32F10x_StdPeriph_Driver/src/stm32f10x_adc.c ****   */
  41:Libraries/STM32F10x_StdPeriph_Driver/src/stm32f10x_adc.c **** 
  42:Libraries/STM32F10x_StdPeriph_Driver/src/stm32f10x_adc.c **** /** @defgroup ADC_Private_Defines
  43:Libraries/STM32F10x_StdPeriph_Driver/src/stm32f10x_adc.c ****   * @{
  44:Libraries/STM32F10x_StdPeriph_Driver/src/stm32f10x_adc.c ****   */
  45:Libraries/STM32F10x_StdPeriph_Driver/src/stm32f10x_adc.c **** 
  46:Libraries/STM32F10x_StdPeriph_Driver/src/stm32f10x_adc.c **** /* ADC DISCNUM mask */
  47:Libraries/STM32F10x_StdPeriph_Driver/src/stm32f10x_adc.c **** #define CR1_DISCNUM_Reset           ((uint32_t)0xFFFF1FFF)
  48:Libraries/STM32F10x_StdPeriph_Driver/src/stm32f10x_adc.c **** 
  49:Libraries/STM32F10x_StdPeriph_Driver/src/stm32f10x_adc.c **** /* ADC DISCEN mask */
  50:Libraries/STM32F10x_StdPeriph_Driver/src/stm32f10x_adc.c **** #define CR1_DISCEN_Set              ((uint32_t)0x00000800)
  51:Libraries/STM32F10x_StdPeriph_Driver/src/stm32f10x_adc.c **** #define CR1_DISCEN_Reset            ((uint32_t)0xFFFFF7FF)
  52:Libraries/STM32F10x_StdPeriph_Driver/src/stm32f10x_adc.c **** 
  53:Libraries/STM32F10x_StdPeriph_Driver/src/stm32f10x_adc.c **** /* ADC JAUTO mask */
  54:Libraries/STM32F10x_StdPeriph_Driver/src/stm32f10x_adc.c **** #define CR1_JAUTO_Set               ((uint32_t)0x00000400)
  55:Libraries/STM32F10x_StdPeriph_Driver/src/stm32f10x_adc.c **** #define CR1_JAUTO_Reset             ((uint32_t)0xFFFFFBFF)
  56:Libraries/STM32F10x_StdPeriph_Driver/src/stm32f10x_adc.c **** 
  57:Libraries/STM32F10x_StdPeriph_Driver/src/stm32f10x_adc.c **** /* ADC JDISCEN mask */
  58:Libraries/STM32F10x_StdPeriph_Driver/src/stm32f10x_adc.c **** #define CR1_JDISCEN_Set             ((uint32_t)0x00001000)
  59:Libraries/STM32F10x_StdPeriph_Driver/src/stm32f10x_adc.c **** #define CR1_JDISCEN_Reset           ((uint32_t)0xFFFFEFFF)
  60:Libraries/STM32F10x_StdPeriph_Driver/src/stm32f10x_adc.c **** 
  61:Libraries/STM32F10x_StdPeriph_Driver/src/stm32f10x_adc.c **** /* ADC AWDCH mask */
  62:Libraries/STM32F10x_StdPeriph_Driver/src/stm32f10x_adc.c **** #define CR1_AWDCH_Reset             ((uint32_t)0xFFFFFFE0)
  63:Libraries/STM32F10x_StdPeriph_Driver/src/stm32f10x_adc.c **** 
  64:Libraries/STM32F10x_StdPeriph_Driver/src/stm32f10x_adc.c **** /* ADC Analog watchdog enable mode mask */
  65:Libraries/STM32F10x_StdPeriph_Driver/src/stm32f10x_adc.c **** #define CR1_AWDMode_Reset           ((uint32_t)0xFF3FFDFF)
  66:Libraries/STM32F10x_StdPeriph_Driver/src/stm32f10x_adc.c **** 
  67:Libraries/STM32F10x_StdPeriph_Driver/src/stm32f10x_adc.c **** /* CR1 register Mask */
  68:Libraries/STM32F10x_StdPeriph_Driver/src/stm32f10x_adc.c **** #define CR1_CLEAR_Mask              ((uint32_t)0xFFF0FEFF)
  69:Libraries/STM32F10x_StdPeriph_Driver/src/stm32f10x_adc.c **** 
  70:Libraries/STM32F10x_StdPeriph_Driver/src/stm32f10x_adc.c **** /* ADC ADON mask */
  71:Libraries/STM32F10x_StdPeriph_Driver/src/stm32f10x_adc.c **** #define CR2_ADON_Set                ((uint32_t)0x00000001)
  72:Libraries/STM32F10x_StdPeriph_Driver/src/stm32f10x_adc.c **** #define CR2_ADON_Reset              ((uint32_t)0xFFFFFFFE)
  73:Libraries/STM32F10x_StdPeriph_Driver/src/stm32f10x_adc.c **** 
  74:Libraries/STM32F10x_StdPeriph_Driver/src/stm32f10x_adc.c **** /* ADC DMA mask */
  75:Libraries/STM32F10x_StdPeriph_Driver/src/stm32f10x_adc.c **** #define CR2_DMA_Set                 ((uint32_t)0x00000100)
  76:Libraries/STM32F10x_StdPeriph_Driver/src/stm32f10x_adc.c **** #define CR2_DMA_Reset               ((uint32_t)0xFFFFFEFF)
  77:Libraries/STM32F10x_StdPeriph_Driver/src/stm32f10x_adc.c **** 
  78:Libraries/STM32F10x_StdPeriph_Driver/src/stm32f10x_adc.c **** /* ADC RSTCAL mask */
  79:Libraries/STM32F10x_StdPeriph_Driver/src/stm32f10x_adc.c **** #define CR2_RSTCAL_Set              ((uint32_t)0x00000008)
  80:Libraries/STM32F10x_StdPeriph_Driver/src/stm32f10x_adc.c **** 
  81:Libraries/STM32F10x_StdPeriph_Driver/src/stm32f10x_adc.c **** /* ADC CAL mask */
  82:Libraries/STM32F10x_StdPeriph_Driver/src/stm32f10x_adc.c **** #define CR2_CAL_Set                 ((uint32_t)0x00000004)
  83:Libraries/STM32F10x_StdPeriph_Driver/src/stm32f10x_adc.c **** 
  84:Libraries/STM32F10x_StdPeriph_Driver/src/stm32f10x_adc.c **** /* ADC SWSTART mask */
  85:Libraries/STM32F10x_StdPeriph_Driver/src/stm32f10x_adc.c **** #define CR2_SWSTART_Set             ((uint32_t)0x00400000)
  86:Libraries/STM32F10x_StdPeriph_Driver/src/stm32f10x_adc.c **** 
  87:Libraries/STM32F10x_StdPeriph_Driver/src/stm32f10x_adc.c **** /* ADC EXTTRIG mask */
  88:Libraries/STM32F10x_StdPeriph_Driver/src/stm32f10x_adc.c **** #define CR2_EXTTRIG_Set             ((uint32_t)0x00100000)
  89:Libraries/STM32F10x_StdPeriph_Driver/src/stm32f10x_adc.c **** #define CR2_EXTTRIG_Reset           ((uint32_t)0xFFEFFFFF)
  90:Libraries/STM32F10x_StdPeriph_Driver/src/stm32f10x_adc.c **** 
  91:Libraries/STM32F10x_StdPeriph_Driver/src/stm32f10x_adc.c **** /* ADC Software start mask */
  92:Libraries/STM32F10x_StdPeriph_Driver/src/stm32f10x_adc.c **** #define CR2_EXTTRIG_SWSTART_Set     ((uint32_t)0x00500000)
  93:Libraries/STM32F10x_StdPeriph_Driver/src/stm32f10x_adc.c **** #define CR2_EXTTRIG_SWSTART_Reset   ((uint32_t)0xFFAFFFFF)
  94:Libraries/STM32F10x_StdPeriph_Driver/src/stm32f10x_adc.c **** 
  95:Libraries/STM32F10x_StdPeriph_Driver/src/stm32f10x_adc.c **** /* ADC JEXTSEL mask */
  96:Libraries/STM32F10x_StdPeriph_Driver/src/stm32f10x_adc.c **** #define CR2_JEXTSEL_Reset           ((uint32_t)0xFFFF8FFF)
  97:Libraries/STM32F10x_StdPeriph_Driver/src/stm32f10x_adc.c **** 
  98:Libraries/STM32F10x_StdPeriph_Driver/src/stm32f10x_adc.c **** /* ADC JEXTTRIG mask */
  99:Libraries/STM32F10x_StdPeriph_Driver/src/stm32f10x_adc.c **** #define CR2_JEXTTRIG_Set            ((uint32_t)0x00008000)
 100:Libraries/STM32F10x_StdPeriph_Driver/src/stm32f10x_adc.c **** #define CR2_JEXTTRIG_Reset          ((uint32_t)0xFFFF7FFF)
 101:Libraries/STM32F10x_StdPeriph_Driver/src/stm32f10x_adc.c **** 
 102:Libraries/STM32F10x_StdPeriph_Driver/src/stm32f10x_adc.c **** /* ADC JSWSTART mask */
 103:Libraries/STM32F10x_StdPeriph_Driver/src/stm32f10x_adc.c **** #define CR2_JSWSTART_Set            ((uint32_t)0x00200000)
 104:Libraries/STM32F10x_StdPeriph_Driver/src/stm32f10x_adc.c **** 
 105:Libraries/STM32F10x_StdPeriph_Driver/src/stm32f10x_adc.c **** /* ADC injected software start mask */
 106:Libraries/STM32F10x_StdPeriph_Driver/src/stm32f10x_adc.c **** #define CR2_JEXTTRIG_JSWSTART_Set   ((uint32_t)0x00208000)
 107:Libraries/STM32F10x_StdPeriph_Driver/src/stm32f10x_adc.c **** #define CR2_JEXTTRIG_JSWSTART_Reset ((uint32_t)0xFFDF7FFF)
 108:Libraries/STM32F10x_StdPeriph_Driver/src/stm32f10x_adc.c **** 
 109:Libraries/STM32F10x_StdPeriph_Driver/src/stm32f10x_adc.c **** /* ADC TSPD mask */
 110:Libraries/STM32F10x_StdPeriph_Driver/src/stm32f10x_adc.c **** #define CR2_TSVREFE_Set             ((uint32_t)0x00800000)
 111:Libraries/STM32F10x_StdPeriph_Driver/src/stm32f10x_adc.c **** #define CR2_TSVREFE_Reset           ((uint32_t)0xFF7FFFFF)
 112:Libraries/STM32F10x_StdPeriph_Driver/src/stm32f10x_adc.c **** 
 113:Libraries/STM32F10x_StdPeriph_Driver/src/stm32f10x_adc.c **** /* CR2 register Mask */
 114:Libraries/STM32F10x_StdPeriph_Driver/src/stm32f10x_adc.c **** #define CR2_CLEAR_Mask              ((uint32_t)0xFFF1F7FD)
 115:Libraries/STM32F10x_StdPeriph_Driver/src/stm32f10x_adc.c **** 
 116:Libraries/STM32F10x_StdPeriph_Driver/src/stm32f10x_adc.c **** /* ADC SQx mask */
 117:Libraries/STM32F10x_StdPeriph_Driver/src/stm32f10x_adc.c **** #define SQR3_SQ_Set                 ((uint32_t)0x0000001F)
 118:Libraries/STM32F10x_StdPeriph_Driver/src/stm32f10x_adc.c **** #define SQR2_SQ_Set                 ((uint32_t)0x0000001F)
 119:Libraries/STM32F10x_StdPeriph_Driver/src/stm32f10x_adc.c **** #define SQR1_SQ_Set                 ((uint32_t)0x0000001F)
 120:Libraries/STM32F10x_StdPeriph_Driver/src/stm32f10x_adc.c **** 
 121:Libraries/STM32F10x_StdPeriph_Driver/src/stm32f10x_adc.c **** /* SQR1 register Mask */
 122:Libraries/STM32F10x_StdPeriph_Driver/src/stm32f10x_adc.c **** #define SQR1_CLEAR_Mask             ((uint32_t)0xFF0FFFFF)
 123:Libraries/STM32F10x_StdPeriph_Driver/src/stm32f10x_adc.c **** 
 124:Libraries/STM32F10x_StdPeriph_Driver/src/stm32f10x_adc.c **** /* ADC JSQx mask */
 125:Libraries/STM32F10x_StdPeriph_Driver/src/stm32f10x_adc.c **** #define JSQR_JSQ_Set                ((uint32_t)0x0000001F)
 126:Libraries/STM32F10x_StdPeriph_Driver/src/stm32f10x_adc.c **** 
 127:Libraries/STM32F10x_StdPeriph_Driver/src/stm32f10x_adc.c **** /* ADC JL mask */
 128:Libraries/STM32F10x_StdPeriph_Driver/src/stm32f10x_adc.c **** #define JSQR_JL_Set                 ((uint32_t)0x00300000)
 129:Libraries/STM32F10x_StdPeriph_Driver/src/stm32f10x_adc.c **** #define JSQR_JL_Reset               ((uint32_t)0xFFCFFFFF)
 130:Libraries/STM32F10x_StdPeriph_Driver/src/stm32f10x_adc.c **** 
 131:Libraries/STM32F10x_StdPeriph_Driver/src/stm32f10x_adc.c **** /* ADC SMPx mask */
 132:Libraries/STM32F10x_StdPeriph_Driver/src/stm32f10x_adc.c **** #define SMPR1_SMP_Set               ((uint32_t)0x00000007)
 133:Libraries/STM32F10x_StdPeriph_Driver/src/stm32f10x_adc.c **** #define SMPR2_SMP_Set               ((uint32_t)0x00000007)
 134:Libraries/STM32F10x_StdPeriph_Driver/src/stm32f10x_adc.c **** 
 135:Libraries/STM32F10x_StdPeriph_Driver/src/stm32f10x_adc.c **** /* ADC JDRx registers offset */
 136:Libraries/STM32F10x_StdPeriph_Driver/src/stm32f10x_adc.c **** #define JDR_Offset                  ((uint8_t)0x28)
 137:Libraries/STM32F10x_StdPeriph_Driver/src/stm32f10x_adc.c **** 
 138:Libraries/STM32F10x_StdPeriph_Driver/src/stm32f10x_adc.c **** /* ADC1 DR register base address */
 139:Libraries/STM32F10x_StdPeriph_Driver/src/stm32f10x_adc.c **** #define DR_ADDRESS                  ((uint32_t)0x4001244C)
 140:Libraries/STM32F10x_StdPeriph_Driver/src/stm32f10x_adc.c **** 
 141:Libraries/STM32F10x_StdPeriph_Driver/src/stm32f10x_adc.c **** /**
 142:Libraries/STM32F10x_StdPeriph_Driver/src/stm32f10x_adc.c ****   * @}
 143:Libraries/STM32F10x_StdPeriph_Driver/src/stm32f10x_adc.c ****   */
 144:Libraries/STM32F10x_StdPeriph_Driver/src/stm32f10x_adc.c **** 
 145:Libraries/STM32F10x_StdPeriph_Driver/src/stm32f10x_adc.c **** /** @defgroup ADC_Private_Macros
 146:Libraries/STM32F10x_StdPeriph_Driver/src/stm32f10x_adc.c ****   * @{
 147:Libraries/STM32F10x_StdPeriph_Driver/src/stm32f10x_adc.c ****   */
 148:Libraries/STM32F10x_StdPeriph_Driver/src/stm32f10x_adc.c **** 
 149:Libraries/STM32F10x_StdPeriph_Driver/src/stm32f10x_adc.c **** /**
 150:Libraries/STM32F10x_StdPeriph_Driver/src/stm32f10x_adc.c ****   * @}
 151:Libraries/STM32F10x_StdPeriph_Driver/src/stm32f10x_adc.c ****   */
 152:Libraries/STM32F10x_StdPeriph_Driver/src/stm32f10x_adc.c **** 
 153:Libraries/STM32F10x_StdPeriph_Driver/src/stm32f10x_adc.c **** /** @defgroup ADC_Private_Variables
 154:Libraries/STM32F10x_StdPeriph_Driver/src/stm32f10x_adc.c ****   * @{
 155:Libraries/STM32F10x_StdPeriph_Driver/src/stm32f10x_adc.c ****   */
 156:Libraries/STM32F10x_StdPeriph_Driver/src/stm32f10x_adc.c **** 
 157:Libraries/STM32F10x_StdPeriph_Driver/src/stm32f10x_adc.c **** /**
 158:Libraries/STM32F10x_StdPeriph_Driver/src/stm32f10x_adc.c ****   * @}
 159:Libraries/STM32F10x_StdPeriph_Driver/src/stm32f10x_adc.c ****   */
 160:Libraries/STM32F10x_StdPeriph_Driver/src/stm32f10x_adc.c **** 
 161:Libraries/STM32F10x_StdPeriph_Driver/src/stm32f10x_adc.c **** /** @defgroup ADC_Private_FunctionPrototypes
 162:Libraries/STM32F10x_StdPeriph_Driver/src/stm32f10x_adc.c ****   * @{
 163:Libraries/STM32F10x_StdPeriph_Driver/src/stm32f10x_adc.c ****   */
 164:Libraries/STM32F10x_StdPeriph_Driver/src/stm32f10x_adc.c **** 
 165:Libraries/STM32F10x_StdPeriph_Driver/src/stm32f10x_adc.c **** /**
 166:Libraries/STM32F10x_StdPeriph_Driver/src/stm32f10x_adc.c ****   * @}
 167:Libraries/STM32F10x_StdPeriph_Driver/src/stm32f10x_adc.c ****   */
 168:Libraries/STM32F10x_StdPeriph_Driver/src/stm32f10x_adc.c **** 
 169:Libraries/STM32F10x_StdPeriph_Driver/src/stm32f10x_adc.c **** /** @defgroup ADC_Private_Functions
 170:Libraries/STM32F10x_StdPeriph_Driver/src/stm32f10x_adc.c ****   * @{
 171:Libraries/STM32F10x_StdPeriph_Driver/src/stm32f10x_adc.c ****   */
 172:Libraries/STM32F10x_StdPeriph_Driver/src/stm32f10x_adc.c **** 
 173:Libraries/STM32F10x_StdPeriph_Driver/src/stm32f10x_adc.c **** /**
 174:Libraries/STM32F10x_StdPeriph_Driver/src/stm32f10x_adc.c ****   * @brief  Deinitializes the ADCx peripheral registers to their default reset values.
 175:Libraries/STM32F10x_StdPeriph_Driver/src/stm32f10x_adc.c ****   * @param  ADCx: where x can be 1, 2 or 3 to select the ADC peripheral.
 176:Libraries/STM32F10x_StdPeriph_Driver/src/stm32f10x_adc.c ****   * @retval None
 177:Libraries/STM32F10x_StdPeriph_Driver/src/stm32f10x_adc.c ****   */
 178:Libraries/STM32F10x_StdPeriph_Driver/src/stm32f10x_adc.c **** void ADC_DeInit(ADC_TypeDef* ADCx)
 179:Libraries/STM32F10x_StdPeriph_Driver/src/stm32f10x_adc.c **** {
  27              		.loc 1 179 0
  28              		.cfi_startproc
  29              		@ args = 0, pretend = 0, frame = 0
  30              		@ frame_needed = 0, uses_anonymous_args = 0
  31              	.LVL0:
 180:Libraries/STM32F10x_StdPeriph_Driver/src/stm32f10x_adc.c ****   /* Check the parameters */
 181:Libraries/STM32F10x_StdPeriph_Driver/src/stm32f10x_adc.c ****   assert_param(IS_ADC_ALL_PERIPH(ADCx));
 182:Libraries/STM32F10x_StdPeriph_Driver/src/stm32f10x_adc.c ****   
 183:Libraries/STM32F10x_StdPeriph_Driver/src/stm32f10x_adc.c ****   if (ADCx == ADC1)
  32              		.loc 1 183 0
  33 0000 114B     		ldr	r3, .L7
 179:Libraries/STM32F10x_StdPeriph_Driver/src/stm32f10x_adc.c ****   /* Check the parameters */
  34              		.loc 1 179 0
  35 0002 10B5     		push	{r4, lr}
  36              		.cfi_def_cfa_offset 8
  37              		.cfi_offset 4, -8
  38              		.cfi_offset 14, -4
  39              		.loc 1 183 0
  40 0004 9842     		cmp	r0, r3
  41 0006 07D1     		bne	.L2
 184:Libraries/STM32F10x_StdPeriph_Driver/src/stm32f10x_adc.c ****   {
 185:Libraries/STM32F10x_StdPeriph_Driver/src/stm32f10x_adc.c ****     /* Enable ADC1 reset state */
 186:Libraries/STM32F10x_StdPeriph_Driver/src/stm32f10x_adc.c ****     RCC_APB2PeriphResetCmd(RCC_APB2Periph_ADC1, ENABLE);
  42              		.loc 1 186 0
  43 0008 4FF40070 		mov	r0, #512
  44              	.LVL1:
  45 000c 0121     		movs	r1, #1
  46 000e 0F4C     		ldr	r4, .L7+4
  47 0010 A047     		blx	r4
  48              	.LVL2:
 187:Libraries/STM32F10x_StdPeriph_Driver/src/stm32f10x_adc.c ****     /* Release ADC1 from reset state */
 188:Libraries/STM32F10x_StdPeriph_Driver/src/stm32f10x_adc.c ****     RCC_APB2PeriphResetCmd(RCC_APB2Periph_ADC1, DISABLE);
  49              		.loc 1 188 0
  50 0012 4FF40070 		mov	r0, #512
  51 0016 14E0     		b	.L5
  52              	.LVL3:
  53              	.L2:
 189:Libraries/STM32F10x_StdPeriph_Driver/src/stm32f10x_adc.c ****   }
 190:Libraries/STM32F10x_StdPeriph_Driver/src/stm32f10x_adc.c ****   else if (ADCx == ADC2)
  54              		.loc 1 190 0
  55 0018 0D4B     		ldr	r3, .L7+8
  56 001a 9842     		cmp	r0, r3
  57 001c 07D1     		bne	.L4
 191:Libraries/STM32F10x_StdPeriph_Driver/src/stm32f10x_adc.c ****   {
 192:Libraries/STM32F10x_StdPeriph_Driver/src/stm32f10x_adc.c ****     /* Enable ADC2 reset state */
 193:Libraries/STM32F10x_StdPeriph_Driver/src/stm32f10x_adc.c ****     RCC_APB2PeriphResetCmd(RCC_APB2Periph_ADC2, ENABLE);
  58              		.loc 1 193 0
  59 001e 4FF48060 		mov	r0, #1024
  60              	.LVL4:
  61 0022 0121     		movs	r1, #1
  62 0024 094C     		ldr	r4, .L7+4
  63 0026 A047     		blx	r4
  64              	.LVL5:
 194:Libraries/STM32F10x_StdPeriph_Driver/src/stm32f10x_adc.c ****     /* Release ADC2 from reset state */
 195:Libraries/STM32F10x_StdPeriph_Driver/src/stm32f10x_adc.c ****     RCC_APB2PeriphResetCmd(RCC_APB2Periph_ADC2, DISABLE);
  65              		.loc 1 195 0
  66 0028 4FF48060 		mov	r0, #1024
  67 002c 09E0     		b	.L5
  68              	.LVL6:
  69              	.L4:
 196:Libraries/STM32F10x_StdPeriph_Driver/src/stm32f10x_adc.c ****   }
 197:Libraries/STM32F10x_StdPeriph_Driver/src/stm32f10x_adc.c ****   else
 198:Libraries/STM32F10x_StdPeriph_Driver/src/stm32f10x_adc.c ****   {
 199:Libraries/STM32F10x_StdPeriph_Driver/src/stm32f10x_adc.c ****     if (ADCx == ADC3)
  70              		.loc 1 199 0
  71 002e 094B     		ldr	r3, .L7+12
  72 0030 9842     		cmp	r0, r3
  73 0032 08D1     		bne	.L1
 200:Libraries/STM32F10x_StdPeriph_Driver/src/stm32f10x_adc.c ****     {
 201:Libraries/STM32F10x_StdPeriph_Driver/src/stm32f10x_adc.c ****       /* Enable ADC3 reset state */
 202:Libraries/STM32F10x_StdPeriph_Driver/src/stm32f10x_adc.c ****       RCC_APB2PeriphResetCmd(RCC_APB2Periph_ADC3, ENABLE);
  74              		.loc 1 202 0
  75 0034 4FF40040 		mov	r0, #32768
  76              	.LVL7:
  77 0038 0121     		movs	r1, #1
  78 003a 044C     		ldr	r4, .L7+4
  79 003c A047     		blx	r4
  80              	.LVL8:
 203:Libraries/STM32F10x_StdPeriph_Driver/src/stm32f10x_adc.c ****       /* Release ADC3 from reset state */
 204:Libraries/STM32F10x_StdPeriph_Driver/src/stm32f10x_adc.c ****       RCC_APB2PeriphResetCmd(RCC_APB2Periph_ADC3, DISABLE);
  81              		.loc 1 204 0
  82 003e 4FF40040 		mov	r0, #32768
  83              	.L5:
  84 0042 0021     		movs	r1, #0
  85 0044 A047     		blx	r4
  86              	.LVL9:
  87              	.L1:
  88 0046 10BD     		pop	{r4, pc}
  89              	.L8:
  90              		.align	2
  91              	.L7:
  92 0048 00240140 		.word	1073816576
  93 004c 00000000 		.word	RCC_APB2PeriphResetCmd
  94 0050 00280140 		.word	1073817600
  95 0054 003C0140 		.word	1073822720
  96              		.cfi_endproc
  97              	.LFE29:
  99              		.section	.text.ADC_Init,"ax",%progbits
 100              		.align	1
 101              		.global	ADC_Init
 102              		.thumb
 103              		.thumb_func
 105              	ADC_Init:
 106              	.LFB30:
 205:Libraries/STM32F10x_StdPeriph_Driver/src/stm32f10x_adc.c ****     }
 206:Libraries/STM32F10x_StdPeriph_Driver/src/stm32f10x_adc.c ****   }
 207:Libraries/STM32F10x_StdPeriph_Driver/src/stm32f10x_adc.c **** }
 208:Libraries/STM32F10x_StdPeriph_Driver/src/stm32f10x_adc.c **** 
 209:Libraries/STM32F10x_StdPeriph_Driver/src/stm32f10x_adc.c **** /**
 210:Libraries/STM32F10x_StdPeriph_Driver/src/stm32f10x_adc.c ****   * @brief  Initializes the ADCx peripheral according to the specified parameters
 211:Libraries/STM32F10x_StdPeriph_Driver/src/stm32f10x_adc.c ****   *   in the ADC_InitStruct.
 212:Libraries/STM32F10x_StdPeriph_Driver/src/stm32f10x_adc.c ****   * @param  ADCx: where x can be 1, 2 or 3 to select the ADC peripheral.
 213:Libraries/STM32F10x_StdPeriph_Driver/src/stm32f10x_adc.c ****   * @param  ADC_InitStruct: pointer to an ADC_InitTypeDef structure that contains
 214:Libraries/STM32F10x_StdPeriph_Driver/src/stm32f10x_adc.c ****   *   the configuration information for the specified ADC peripheral.
 215:Libraries/STM32F10x_StdPeriph_Driver/src/stm32f10x_adc.c ****   * @retval None
 216:Libraries/STM32F10x_StdPeriph_Driver/src/stm32f10x_adc.c ****   */
 217:Libraries/STM32F10x_StdPeriph_Driver/src/stm32f10x_adc.c **** void ADC_Init(ADC_TypeDef* ADCx, ADC_InitTypeDef* ADC_InitStruct)
 218:Libraries/STM32F10x_StdPeriph_Driver/src/stm32f10x_adc.c **** {
 107              		.loc 1 218 0
 108              		.cfi_startproc
 109              		@ args = 0, pretend = 0, frame = 0
 110              		@ frame_needed = 0, uses_anonymous_args = 0
 111              	.LVL10:
 219:Libraries/STM32F10x_StdPeriph_Driver/src/stm32f10x_adc.c ****   uint32_t tmpreg1 = 0;
 220:Libraries/STM32F10x_StdPeriph_Driver/src/stm32f10x_adc.c ****   uint8_t tmpreg2 = 0;
 221:Libraries/STM32F10x_StdPeriph_Driver/src/stm32f10x_adc.c ****   /* Check the parameters */
 222:Libraries/STM32F10x_StdPeriph_Driver/src/stm32f10x_adc.c ****   assert_param(IS_ADC_ALL_PERIPH(ADCx));
 223:Libraries/STM32F10x_StdPeriph_Driver/src/stm32f10x_adc.c ****   assert_param(IS_ADC_MODE(ADC_InitStruct->ADC_Mode));
 224:Libraries/STM32F10x_StdPeriph_Driver/src/stm32f10x_adc.c ****   assert_param(IS_FUNCTIONAL_STATE(ADC_InitStruct->ADC_ScanConvMode));
 225:Libraries/STM32F10x_StdPeriph_Driver/src/stm32f10x_adc.c ****   assert_param(IS_FUNCTIONAL_STATE(ADC_InitStruct->ADC_ContinuousConvMode));
 226:Libraries/STM32F10x_StdPeriph_Driver/src/stm32f10x_adc.c ****   assert_param(IS_ADC_EXT_TRIG(ADC_InitStruct->ADC_ExternalTrigConv));   
 227:Libraries/STM32F10x_StdPeriph_Driver/src/stm32f10x_adc.c ****   assert_param(IS_ADC_DATA_ALIGN(ADC_InitStruct->ADC_DataAlign)); 
 228:Libraries/STM32F10x_StdPeriph_Driver/src/stm32f10x_adc.c ****   assert_param(IS_ADC_REGULAR_LENGTH(ADC_InitStruct->ADC_NbrOfChannel));
 229:Libraries/STM32F10x_StdPeriph_Driver/src/stm32f10x_adc.c **** 
 230:Libraries/STM32F10x_StdPeriph_Driver/src/stm32f10x_adc.c ****   /*---------------------------- ADCx CR1 Configuration -----------------*/
 231:Libraries/STM32F10x_StdPeriph_Driver/src/stm32f10x_adc.c ****   /* Get the ADCx CR1 value */
 232:Libraries/STM32F10x_StdPeriph_Driver/src/stm32f10x_adc.c ****   tmpreg1 = ADCx->CR1;
 112              		.loc 1 232 0
 113 0000 4368     		ldr	r3, [r0, #4]
 114              	.LVL11:
 218:Libraries/STM32F10x_StdPeriph_Driver/src/stm32f10x_adc.c ****   uint32_t tmpreg1 = 0;
 115              		.loc 1 218 0
 116 0002 10B5     		push	{r4, lr}
 117              		.cfi_def_cfa_offset 8
 118              		.cfi_offset 4, -8
 119              		.cfi_offset 14, -4
 233:Libraries/STM32F10x_StdPeriph_Driver/src/stm32f10x_adc.c ****   /* Clear DUALMOD and SCAN bits */
 234:Libraries/STM32F10x_StdPeriph_Driver/src/stm32f10x_adc.c ****   tmpreg1 &= CR1_CLEAR_Mask;
 120              		.loc 1 234 0
 121 0004 23F47022 		bic	r2, r3, #983040
 122 0008 0B68     		ldr	r3, [r1]
 123              	.LVL12:
 124 000a 22F48072 		bic	r2, r2, #256
 125 000e 1343     		orrs	r3, r3, r2
 235:Libraries/STM32F10x_StdPeriph_Driver/src/stm32f10x_adc.c ****   /* Configure ADCx: Dual mode and scan conversion mode */
 236:Libraries/STM32F10x_StdPeriph_Driver/src/stm32f10x_adc.c ****   /* Set DUALMOD bits according to ADC_Mode value */
 237:Libraries/STM32F10x_StdPeriph_Driver/src/stm32f10x_adc.c ****   /* Set SCAN bit according to ADC_ScanConvMode value */
 238:Libraries/STM32F10x_StdPeriph_Driver/src/stm32f10x_adc.c ****   tmpreg1 |= (uint32_t)(ADC_InitStruct->ADC_Mode | ((uint32_t)ADC_InitStruct->ADC_ScanConvMode << 8
 126              		.loc 1 238 0
 127 0010 0A79     		ldrb	r2, [r1, #4]	@ zero_extendqisi2
 128 0012 43EA0223 		orr	r3, r3, r2, lsl #8
 129              	.LVL13:
 239:Libraries/STM32F10x_StdPeriph_Driver/src/stm32f10x_adc.c ****   /* Write to ADCx CR1 */
 240:Libraries/STM32F10x_StdPeriph_Driver/src/stm32f10x_adc.c ****   ADCx->CR1 = tmpreg1;
 130              		.loc 1 240 0
 131 0016 4360     		str	r3, [r0, #4]
 132 0018 8A68     		ldr	r2, [r1, #8]
 133 001a CB68     		ldr	r3, [r1, #12]
 134              	.LVL14:
 241:Libraries/STM32F10x_StdPeriph_Driver/src/stm32f10x_adc.c **** 
 242:Libraries/STM32F10x_StdPeriph_Driver/src/stm32f10x_adc.c ****   /*---------------------------- ADCx CR2 Configuration -----------------*/
 243:Libraries/STM32F10x_StdPeriph_Driver/src/stm32f10x_adc.c ****   /* Get the ADCx CR2 value */
 244:Libraries/STM32F10x_StdPeriph_Driver/src/stm32f10x_adc.c ****   tmpreg1 = ADCx->CR2;
 135              		.loc 1 244 0
 136 001c 8468     		ldr	r4, [r0, #8]
 137              	.LVL15:
 138 001e 1A43     		orrs	r2, r2, r3
 245:Libraries/STM32F10x_StdPeriph_Driver/src/stm32f10x_adc.c ****   /* Clear CONT, ALIGN and EXTSEL bits */
 246:Libraries/STM32F10x_StdPeriph_Driver/src/stm32f10x_adc.c ****   tmpreg1 &= CR2_CLEAR_Mask;
 139              		.loc 1 246 0
 140 0020 084B     		ldr	r3, .L10
 141 0022 2340     		ands	r3, r3, r4
 142              	.LVL16:
 143 0024 1343     		orrs	r3, r3, r2
 144              	.LVL17:
 247:Libraries/STM32F10x_StdPeriph_Driver/src/stm32f10x_adc.c ****   /* Configure ADCx: external trigger event and continuous conversion mode */
 248:Libraries/STM32F10x_StdPeriph_Driver/src/stm32f10x_adc.c ****   /* Set ALIGN bit according to ADC_DataAlign value */
 249:Libraries/STM32F10x_StdPeriph_Driver/src/stm32f10x_adc.c ****   /* Set EXTSEL bits according to ADC_ExternalTrigConv value */
 250:Libraries/STM32F10x_StdPeriph_Driver/src/stm32f10x_adc.c ****   /* Set CONT bit according to ADC_ContinuousConvMode value */
 251:Libraries/STM32F10x_StdPeriph_Driver/src/stm32f10x_adc.c ****   tmpreg1 |= (uint32_t)(ADC_InitStruct->ADC_DataAlign | ADC_InitStruct->ADC_ExternalTrigConv |
 252:Libraries/STM32F10x_StdPeriph_Driver/src/stm32f10x_adc.c ****             ((uint32_t)ADC_InitStruct->ADC_ContinuousConvMode << 1));
 145              		.loc 1 252 0
 146 0026 4A79     		ldrb	r2, [r1, #5]	@ zero_extendqisi2
 251:Libraries/STM32F10x_StdPeriph_Driver/src/stm32f10x_adc.c ****             ((uint32_t)ADC_InitStruct->ADC_ContinuousConvMode << 1));
 147              		.loc 1 251 0
 148 0028 43EA4203 		orr	r3, r3, r2, lsl #1
 149              	.LVL18:
 253:Libraries/STM32F10x_StdPeriph_Driver/src/stm32f10x_adc.c ****   /* Write to ADCx CR2 */
 254:Libraries/STM32F10x_StdPeriph_Driver/src/stm32f10x_adc.c ****   ADCx->CR2 = tmpreg1;
 150              		.loc 1 254 0
 151 002c 8360     		str	r3, [r0, #8]
 255:Libraries/STM32F10x_StdPeriph_Driver/src/stm32f10x_adc.c **** 
 256:Libraries/STM32F10x_StdPeriph_Driver/src/stm32f10x_adc.c ****   /*---------------------------- ADCx SQR1 Configuration -----------------*/
 257:Libraries/STM32F10x_StdPeriph_Driver/src/stm32f10x_adc.c ****   /* Get the ADCx SQR1 value */
 258:Libraries/STM32F10x_StdPeriph_Driver/src/stm32f10x_adc.c ****   tmpreg1 = ADCx->SQR1;
 152              		.loc 1 258 0
 153 002e C36A     		ldr	r3, [r0, #44]
 154              	.LVL19:
 259:Libraries/STM32F10x_StdPeriph_Driver/src/stm32f10x_adc.c ****   /* Clear L bits */
 260:Libraries/STM32F10x_StdPeriph_Driver/src/stm32f10x_adc.c ****   tmpreg1 &= SQR1_CLEAR_Mask;
 155              		.loc 1 260 0
 156 0030 23F47002 		bic	r2, r3, #15728640
 157              	.LVL20:
 261:Libraries/STM32F10x_StdPeriph_Driver/src/stm32f10x_adc.c ****   /* Configure ADCx: regular channel sequence length */
 262:Libraries/STM32F10x_StdPeriph_Driver/src/stm32f10x_adc.c ****   /* Set L bits according to ADC_NbrOfChannel value */
 263:Libraries/STM32F10x_StdPeriph_Driver/src/stm32f10x_adc.c ****   tmpreg2 |= (uint8_t) (ADC_InitStruct->ADC_NbrOfChannel - (uint8_t)1);
 158              		.loc 1 263 0
 159 0034 0B7C     		ldrb	r3, [r1, #16]	@ zero_extendqisi2
 160 0036 013B     		subs	r3, r3, #1
 264:Libraries/STM32F10x_StdPeriph_Driver/src/stm32f10x_adc.c ****   tmpreg1 |= (uint32_t)tmpreg2 << 20;
 161              		.loc 1 264 0
 162 0038 DBB2     		uxtb	r3, r3
 163 003a 42EA0353 		orr	r3, r2, r3, lsl #20
 164              	.LVL21:
 265:Libraries/STM32F10x_StdPeriph_Driver/src/stm32f10x_adc.c ****   /* Write to ADCx SQR1 */
 266:Libraries/STM32F10x_StdPeriph_Driver/src/stm32f10x_adc.c ****   ADCx->SQR1 = tmpreg1;
 165              		.loc 1 266 0
 166 003e C362     		str	r3, [r0, #44]
 167              	.LVL22:
 168 0040 10BD     		pop	{r4, pc}
 169              	.L11:
 170 0042 00BF     		.align	2
 171              	.L10:
 172 0044 FDF7F1FF 		.word	-919555
 173              		.cfi_endproc
 174              	.LFE30:
 176              		.section	.text.ADC_StructInit,"ax",%progbits
 177              		.align	1
 178              		.global	ADC_StructInit
 179              		.thumb
 180              		.thumb_func
 182              	ADC_StructInit:
 183              	.LFB31:
 267:Libraries/STM32F10x_StdPeriph_Driver/src/stm32f10x_adc.c **** }
 268:Libraries/STM32F10x_StdPeriph_Driver/src/stm32f10x_adc.c **** 
 269:Libraries/STM32F10x_StdPeriph_Driver/src/stm32f10x_adc.c **** /**
 270:Libraries/STM32F10x_StdPeriph_Driver/src/stm32f10x_adc.c ****   * @brief  Fills each ADC_InitStruct member with its default value.
 271:Libraries/STM32F10x_StdPeriph_Driver/src/stm32f10x_adc.c ****   * @param  ADC_InitStruct : pointer to an ADC_InitTypeDef structure which will be initialized.
 272:Libraries/STM32F10x_StdPeriph_Driver/src/stm32f10x_adc.c ****   * @retval None
 273:Libraries/STM32F10x_StdPeriph_Driver/src/stm32f10x_adc.c ****   */
 274:Libraries/STM32F10x_StdPeriph_Driver/src/stm32f10x_adc.c **** void ADC_StructInit(ADC_InitTypeDef* ADC_InitStruct)
 275:Libraries/STM32F10x_StdPeriph_Driver/src/stm32f10x_adc.c **** {
 184              		.loc 1 275 0
 185              		.cfi_startproc
 186              		@ args = 0, pretend = 0, frame = 0
 187              		@ frame_needed = 0, uses_anonymous_args = 0
 188              		@ link register save eliminated.
 189              	.LVL23:
 276:Libraries/STM32F10x_StdPeriph_Driver/src/stm32f10x_adc.c ****   /* Reset ADC init structure parameters values */
 277:Libraries/STM32F10x_StdPeriph_Driver/src/stm32f10x_adc.c ****   /* Initialize the ADC_Mode member */
 278:Libraries/STM32F10x_StdPeriph_Driver/src/stm32f10x_adc.c ****   ADC_InitStruct->ADC_Mode = ADC_Mode_Independent;
 190              		.loc 1 278 0
 191 0000 0023     		movs	r3, #0
 192 0002 0360     		str	r3, [r0]
 279:Libraries/STM32F10x_StdPeriph_Driver/src/stm32f10x_adc.c ****   /* initialize the ADC_ScanConvMode member */
 280:Libraries/STM32F10x_StdPeriph_Driver/src/stm32f10x_adc.c ****   ADC_InitStruct->ADC_ScanConvMode = DISABLE;
 193              		.loc 1 280 0
 194 0004 0371     		strb	r3, [r0, #4]
 281:Libraries/STM32F10x_StdPeriph_Driver/src/stm32f10x_adc.c ****   /* Initialize the ADC_ContinuousConvMode member */
 282:Libraries/STM32F10x_StdPeriph_Driver/src/stm32f10x_adc.c ****   ADC_InitStruct->ADC_ContinuousConvMode = DISABLE;
 195              		.loc 1 282 0
 196 0006 4371     		strb	r3, [r0, #5]
 283:Libraries/STM32F10x_StdPeriph_Driver/src/stm32f10x_adc.c ****   /* Initialize the ADC_ExternalTrigConv member */
 284:Libraries/STM32F10x_StdPeriph_Driver/src/stm32f10x_adc.c ****   ADC_InitStruct->ADC_ExternalTrigConv = ADC_ExternalTrigConv_T1_CC1;
 197              		.loc 1 284 0
 198 0008 8360     		str	r3, [r0, #8]
 285:Libraries/STM32F10x_StdPeriph_Driver/src/stm32f10x_adc.c ****   /* Initialize the ADC_DataAlign member */
 286:Libraries/STM32F10x_StdPeriph_Driver/src/stm32f10x_adc.c ****   ADC_InitStruct->ADC_DataAlign = ADC_DataAlign_Right;
 199              		.loc 1 286 0
 200 000a C360     		str	r3, [r0, #12]
 287:Libraries/STM32F10x_StdPeriph_Driver/src/stm32f10x_adc.c ****   /* Initialize the ADC_NbrOfChannel member */
 288:Libraries/STM32F10x_StdPeriph_Driver/src/stm32f10x_adc.c ****   ADC_InitStruct->ADC_NbrOfChannel = 1;
 201              		.loc 1 288 0
 202 000c 0123     		movs	r3, #1
 203 000e 0374     		strb	r3, [r0, #16]
 204 0010 7047     		bx	lr
 205              		.cfi_endproc
 206              	.LFE31:
 208              		.section	.text.ADC_Cmd,"ax",%progbits
 209              		.align	1
 210              		.global	ADC_Cmd
 211              		.thumb
 212              		.thumb_func
 214              	ADC_Cmd:
 215              	.LFB32:
 289:Libraries/STM32F10x_StdPeriph_Driver/src/stm32f10x_adc.c **** }
 290:Libraries/STM32F10x_StdPeriph_Driver/src/stm32f10x_adc.c **** 
 291:Libraries/STM32F10x_StdPeriph_Driver/src/stm32f10x_adc.c **** /**
 292:Libraries/STM32F10x_StdPeriph_Driver/src/stm32f10x_adc.c ****   * @brief  Enables or disables the specified ADC peripheral.
 293:Libraries/STM32F10x_StdPeriph_Driver/src/stm32f10x_adc.c ****   * @param  ADCx: where x can be 1, 2 or 3 to select the ADC peripheral.
 294:Libraries/STM32F10x_StdPeriph_Driver/src/stm32f10x_adc.c ****   * @param  NewState: new state of the ADCx peripheral.
 295:Libraries/STM32F10x_StdPeriph_Driver/src/stm32f10x_adc.c ****   *   This parameter can be: ENABLE or DISABLE.
 296:Libraries/STM32F10x_StdPeriph_Driver/src/stm32f10x_adc.c ****   * @retval None
 297:Libraries/STM32F10x_StdPeriph_Driver/src/stm32f10x_adc.c ****   */
 298:Libraries/STM32F10x_StdPeriph_Driver/src/stm32f10x_adc.c **** void ADC_Cmd(ADC_TypeDef* ADCx, FunctionalState NewState)
 299:Libraries/STM32F10x_StdPeriph_Driver/src/stm32f10x_adc.c **** {
 216              		.loc 1 299 0
 217              		.cfi_startproc
 218              		@ args = 0, pretend = 0, frame = 0
 219              		@ frame_needed = 0, uses_anonymous_args = 0
 220              		@ link register save eliminated.
 221              	.LVL24:
 300:Libraries/STM32F10x_StdPeriph_Driver/src/stm32f10x_adc.c ****   /* Check the parameters */
 301:Libraries/STM32F10x_StdPeriph_Driver/src/stm32f10x_adc.c ****   assert_param(IS_ADC_ALL_PERIPH(ADCx));
 302:Libraries/STM32F10x_StdPeriph_Driver/src/stm32f10x_adc.c ****   assert_param(IS_FUNCTIONAL_STATE(NewState));
 303:Libraries/STM32F10x_StdPeriph_Driver/src/stm32f10x_adc.c ****   if (NewState != DISABLE)
 304:Libraries/STM32F10x_StdPeriph_Driver/src/stm32f10x_adc.c ****   {
 305:Libraries/STM32F10x_StdPeriph_Driver/src/stm32f10x_adc.c ****     /* Set the ADON bit to wake up the ADC from power down mode */
 306:Libraries/STM32F10x_StdPeriph_Driver/src/stm32f10x_adc.c ****     ADCx->CR2 |= CR2_ADON_Set;
 222              		.loc 1 306 0
 223 0000 8368     		ldr	r3, [r0, #8]
 303:Libraries/STM32F10x_StdPeriph_Driver/src/stm32f10x_adc.c ****   {
 224              		.loc 1 303 0
 225 0002 11B1     		cbz	r1, .L14
 226              		.loc 1 306 0
 227 0004 43F00103 		orr	r3, r3, #1
 228 0008 01E0     		b	.L16
 229              	.L14:
 307:Libraries/STM32F10x_StdPeriph_Driver/src/stm32f10x_adc.c ****   }
 308:Libraries/STM32F10x_StdPeriph_Driver/src/stm32f10x_adc.c ****   else
 309:Libraries/STM32F10x_StdPeriph_Driver/src/stm32f10x_adc.c ****   {
 310:Libraries/STM32F10x_StdPeriph_Driver/src/stm32f10x_adc.c ****     /* Disable the selected ADC peripheral */
 311:Libraries/STM32F10x_StdPeriph_Driver/src/stm32f10x_adc.c ****     ADCx->CR2 &= CR2_ADON_Reset;
 230              		.loc 1 311 0
 231 000a 23F00103 		bic	r3, r3, #1
 232              	.L16:
 233 000e 8360     		str	r3, [r0, #8]
 234 0010 7047     		bx	lr
 235              		.cfi_endproc
 236              	.LFE32:
 238              		.section	.text.ADC_DMACmd,"ax",%progbits
 239              		.align	1
 240              		.global	ADC_DMACmd
 241              		.thumb
 242              		.thumb_func
 244              	ADC_DMACmd:
 245              	.LFB33:
 312:Libraries/STM32F10x_StdPeriph_Driver/src/stm32f10x_adc.c ****   }
 313:Libraries/STM32F10x_StdPeriph_Driver/src/stm32f10x_adc.c **** }
 314:Libraries/STM32F10x_StdPeriph_Driver/src/stm32f10x_adc.c **** 
 315:Libraries/STM32F10x_StdPeriph_Driver/src/stm32f10x_adc.c **** /**
 316:Libraries/STM32F10x_StdPeriph_Driver/src/stm32f10x_adc.c ****   * @brief  Enables or disables the specified ADC DMA request.
 317:Libraries/STM32F10x_StdPeriph_Driver/src/stm32f10x_adc.c ****   * @param  ADCx: where x can be 1 or 3 to select the ADC peripheral.
 318:Libraries/STM32F10x_StdPeriph_Driver/src/stm32f10x_adc.c ****   *   Note: ADC2 hasn't a DMA capability.
 319:Libraries/STM32F10x_StdPeriph_Driver/src/stm32f10x_adc.c ****   * @param  NewState: new state of the selected ADC DMA transfer.
 320:Libraries/STM32F10x_StdPeriph_Driver/src/stm32f10x_adc.c ****   *   This parameter can be: ENABLE or DISABLE.
 321:Libraries/STM32F10x_StdPeriph_Driver/src/stm32f10x_adc.c ****   * @retval None
 322:Libraries/STM32F10x_StdPeriph_Driver/src/stm32f10x_adc.c ****   */
 323:Libraries/STM32F10x_StdPeriph_Driver/src/stm32f10x_adc.c **** void ADC_DMACmd(ADC_TypeDef* ADCx, FunctionalState NewState)
 324:Libraries/STM32F10x_StdPeriph_Driver/src/stm32f10x_adc.c **** {
 246              		.loc 1 324 0
 247              		.cfi_startproc
 248              		@ args = 0, pretend = 0, frame = 0
 249              		@ frame_needed = 0, uses_anonymous_args = 0
 250              		@ link register save eliminated.
 251              	.LVL25:
 325:Libraries/STM32F10x_StdPeriph_Driver/src/stm32f10x_adc.c ****   /* Check the parameters */
 326:Libraries/STM32F10x_StdPeriph_Driver/src/stm32f10x_adc.c ****   assert_param(IS_ADC_DMA_PERIPH(ADCx));
 327:Libraries/STM32F10x_StdPeriph_Driver/src/stm32f10x_adc.c ****   assert_param(IS_FUNCTIONAL_STATE(NewState));
 328:Libraries/STM32F10x_StdPeriph_Driver/src/stm32f10x_adc.c ****   if (NewState != DISABLE)
 329:Libraries/STM32F10x_StdPeriph_Driver/src/stm32f10x_adc.c ****   {
 330:Libraries/STM32F10x_StdPeriph_Driver/src/stm32f10x_adc.c ****     /* Enable the selected ADC DMA request */
 331:Libraries/STM32F10x_StdPeriph_Driver/src/stm32f10x_adc.c ****     ADCx->CR2 |= CR2_DMA_Set;
 252              		.loc 1 331 0
 253 0000 8368     		ldr	r3, [r0, #8]
 328:Libraries/STM32F10x_StdPeriph_Driver/src/stm32f10x_adc.c ****   {
 254              		.loc 1 328 0
 255 0002 11B1     		cbz	r1, .L18
 256              		.loc 1 331 0
 257 0004 43F48073 		orr	r3, r3, #256
 258 0008 01E0     		b	.L20
 259              	.L18:
 332:Libraries/STM32F10x_StdPeriph_Driver/src/stm32f10x_adc.c ****   }
 333:Libraries/STM32F10x_StdPeriph_Driver/src/stm32f10x_adc.c ****   else
 334:Libraries/STM32F10x_StdPeriph_Driver/src/stm32f10x_adc.c ****   {
 335:Libraries/STM32F10x_StdPeriph_Driver/src/stm32f10x_adc.c ****     /* Disable the selected ADC DMA request */
 336:Libraries/STM32F10x_StdPeriph_Driver/src/stm32f10x_adc.c ****     ADCx->CR2 &= CR2_DMA_Reset;
 260              		.loc 1 336 0
 261 000a 23F48073 		bic	r3, r3, #256
 262              	.L20:
 263 000e 8360     		str	r3, [r0, #8]
 264 0010 7047     		bx	lr
 265              		.cfi_endproc
 266              	.LFE33:
 268              		.section	.text.ADC_ITConfig,"ax",%progbits
 269              		.align	1
 270              		.global	ADC_ITConfig
 271              		.thumb
 272              		.thumb_func
 274              	ADC_ITConfig:
 275              	.LFB34:
 337:Libraries/STM32F10x_StdPeriph_Driver/src/stm32f10x_adc.c ****   }
 338:Libraries/STM32F10x_StdPeriph_Driver/src/stm32f10x_adc.c **** }
 339:Libraries/STM32F10x_StdPeriph_Driver/src/stm32f10x_adc.c **** 
 340:Libraries/STM32F10x_StdPeriph_Driver/src/stm32f10x_adc.c **** /**
 341:Libraries/STM32F10x_StdPeriph_Driver/src/stm32f10x_adc.c ****   * @brief  Enables or disables the specified ADC interrupts.
 342:Libraries/STM32F10x_StdPeriph_Driver/src/stm32f10x_adc.c ****   * @param  ADCx: where x can be 1, 2 or 3 to select the ADC peripheral.
 343:Libraries/STM32F10x_StdPeriph_Driver/src/stm32f10x_adc.c ****   * @param  ADC_IT: specifies the ADC interrupt sources to be enabled or disabled. 
 344:Libraries/STM32F10x_StdPeriph_Driver/src/stm32f10x_adc.c ****   *   This parameter can be any combination of the following values:
 345:Libraries/STM32F10x_StdPeriph_Driver/src/stm32f10x_adc.c ****   *     @arg ADC_IT_EOC: End of conversion interrupt mask
 346:Libraries/STM32F10x_StdPeriph_Driver/src/stm32f10x_adc.c ****   *     @arg ADC_IT_AWD: Analog watchdog interrupt mask
 347:Libraries/STM32F10x_StdPeriph_Driver/src/stm32f10x_adc.c ****   *     @arg ADC_IT_JEOC: End of injected conversion interrupt mask
 348:Libraries/STM32F10x_StdPeriph_Driver/src/stm32f10x_adc.c ****   * @param  NewState: new state of the specified ADC interrupts.
 349:Libraries/STM32F10x_StdPeriph_Driver/src/stm32f10x_adc.c ****   *   This parameter can be: ENABLE or DISABLE.
 350:Libraries/STM32F10x_StdPeriph_Driver/src/stm32f10x_adc.c ****   * @retval None
 351:Libraries/STM32F10x_StdPeriph_Driver/src/stm32f10x_adc.c ****   */
 352:Libraries/STM32F10x_StdPeriph_Driver/src/stm32f10x_adc.c **** void ADC_ITConfig(ADC_TypeDef* ADCx, uint16_t ADC_IT, FunctionalState NewState)
 353:Libraries/STM32F10x_StdPeriph_Driver/src/stm32f10x_adc.c **** {
 276              		.loc 1 353 0
 277              		.cfi_startproc
 278              		@ args = 0, pretend = 0, frame = 0
 279              		@ frame_needed = 0, uses_anonymous_args = 0
 280              		@ link register save eliminated.
 281              	.LVL26:
 354:Libraries/STM32F10x_StdPeriph_Driver/src/stm32f10x_adc.c ****   uint8_t itmask = 0;
 355:Libraries/STM32F10x_StdPeriph_Driver/src/stm32f10x_adc.c ****   /* Check the parameters */
 356:Libraries/STM32F10x_StdPeriph_Driver/src/stm32f10x_adc.c ****   assert_param(IS_ADC_ALL_PERIPH(ADCx));
 357:Libraries/STM32F10x_StdPeriph_Driver/src/stm32f10x_adc.c ****   assert_param(IS_FUNCTIONAL_STATE(NewState));
 358:Libraries/STM32F10x_StdPeriph_Driver/src/stm32f10x_adc.c ****   assert_param(IS_ADC_IT(ADC_IT));
 359:Libraries/STM32F10x_StdPeriph_Driver/src/stm32f10x_adc.c ****   /* Get the ADC IT index */
 360:Libraries/STM32F10x_StdPeriph_Driver/src/stm32f10x_adc.c ****   itmask = (uint8_t)ADC_IT;
 282              		.loc 1 360 0
 283 0000 C9B2     		uxtb	r1, r1
 284              	.LVL27:
 361:Libraries/STM32F10x_StdPeriph_Driver/src/stm32f10x_adc.c ****   if (NewState != DISABLE)
 362:Libraries/STM32F10x_StdPeriph_Driver/src/stm32f10x_adc.c ****   {
 363:Libraries/STM32F10x_StdPeriph_Driver/src/stm32f10x_adc.c ****     /* Enable the selected ADC interrupts */
 364:Libraries/STM32F10x_StdPeriph_Driver/src/stm32f10x_adc.c ****     ADCx->CR1 |= itmask;
 285              		.loc 1 364 0
 286 0002 4368     		ldr	r3, [r0, #4]
 361:Libraries/STM32F10x_StdPeriph_Driver/src/stm32f10x_adc.c ****   if (NewState != DISABLE)
 287              		.loc 1 361 0
 288 0004 0AB1     		cbz	r2, .L22
 289              		.loc 1 364 0
 290 0006 1943     		orrs	r1, r1, r3
 291              	.LVL28:
 292 0008 01E0     		b	.L24
 293              	.LVL29:
 294              	.L22:
 365:Libraries/STM32F10x_StdPeriph_Driver/src/stm32f10x_adc.c ****   }
 366:Libraries/STM32F10x_StdPeriph_Driver/src/stm32f10x_adc.c ****   else
 367:Libraries/STM32F10x_StdPeriph_Driver/src/stm32f10x_adc.c ****   {
 368:Libraries/STM32F10x_StdPeriph_Driver/src/stm32f10x_adc.c ****     /* Disable the selected ADC interrupts */
 369:Libraries/STM32F10x_StdPeriph_Driver/src/stm32f10x_adc.c ****     ADCx->CR1 &= (~(uint32_t)itmask);
 295              		.loc 1 369 0
 296 000a 23EA0101 		bic	r1, r3, r1
 297              	.LVL30:
 298              	.L24:
 299 000e 4160     		str	r1, [r0, #4]
 300 0010 7047     		bx	lr
 301              		.cfi_endproc
 302              	.LFE34:
 304              		.section	.text.ADC_ResetCalibration,"ax",%progbits
 305              		.align	1
 306              		.global	ADC_ResetCalibration
 307              		.thumb
 308              		.thumb_func
 310              	ADC_ResetCalibration:
 311              	.LFB35:
 370:Libraries/STM32F10x_StdPeriph_Driver/src/stm32f10x_adc.c ****   }
 371:Libraries/STM32F10x_StdPeriph_Driver/src/stm32f10x_adc.c **** }
 372:Libraries/STM32F10x_StdPeriph_Driver/src/stm32f10x_adc.c **** 
 373:Libraries/STM32F10x_StdPeriph_Driver/src/stm32f10x_adc.c **** /**
 374:Libraries/STM32F10x_StdPeriph_Driver/src/stm32f10x_adc.c ****   * @brief  Resets the selected ADC calibration registers.
 375:Libraries/STM32F10x_StdPeriph_Driver/src/stm32f10x_adc.c ****   * @param  ADCx: where x can be 1, 2 or 3 to select the ADC peripheral.
 376:Libraries/STM32F10x_StdPeriph_Driver/src/stm32f10x_adc.c ****   * @retval None
 377:Libraries/STM32F10x_StdPeriph_Driver/src/stm32f10x_adc.c ****   */
 378:Libraries/STM32F10x_StdPeriph_Driver/src/stm32f10x_adc.c **** void ADC_ResetCalibration(ADC_TypeDef* ADCx)
 379:Libraries/STM32F10x_StdPeriph_Driver/src/stm32f10x_adc.c **** {
 312              		.loc 1 379 0
 313              		.cfi_startproc
 314              		@ args = 0, pretend = 0, frame = 0
 315              		@ frame_needed = 0, uses_anonymous_args = 0
 316              		@ link register save eliminated.
 317              	.LVL31:
 380:Libraries/STM32F10x_StdPeriph_Driver/src/stm32f10x_adc.c ****   /* Check the parameters */
 381:Libraries/STM32F10x_StdPeriph_Driver/src/stm32f10x_adc.c ****   assert_param(IS_ADC_ALL_PERIPH(ADCx));
 382:Libraries/STM32F10x_StdPeriph_Driver/src/stm32f10x_adc.c ****   /* Resets the selected ADC calibartion registers */  
 383:Libraries/STM32F10x_StdPeriph_Driver/src/stm32f10x_adc.c ****   ADCx->CR2 |= CR2_RSTCAL_Set;
 318              		.loc 1 383 0
 319 0000 8368     		ldr	r3, [r0, #8]
 320 0002 43F00803 		orr	r3, r3, #8
 321 0006 8360     		str	r3, [r0, #8]
 322 0008 7047     		bx	lr
 323              		.cfi_endproc
 324              	.LFE35:
 326              		.section	.text.ADC_GetResetCalibrationStatus,"ax",%progbits
 327              		.align	1
 328              		.global	ADC_GetResetCalibrationStatus
 329              		.thumb
 330              		.thumb_func
 332              	ADC_GetResetCalibrationStatus:
 333              	.LFB36:
 384:Libraries/STM32F10x_StdPeriph_Driver/src/stm32f10x_adc.c **** }
 385:Libraries/STM32F10x_StdPeriph_Driver/src/stm32f10x_adc.c **** 
 386:Libraries/STM32F10x_StdPeriph_Driver/src/stm32f10x_adc.c **** /**
 387:Libraries/STM32F10x_StdPeriph_Driver/src/stm32f10x_adc.c ****   * @brief  Gets the selected ADC reset calibration registers status.
 388:Libraries/STM32F10x_StdPeriph_Driver/src/stm32f10x_adc.c ****   * @param  ADCx: where x can be 1, 2 or 3 to select the ADC peripheral.
 389:Libraries/STM32F10x_StdPeriph_Driver/src/stm32f10x_adc.c ****   * @retval The new state of ADC reset calibration registers (SET or RESET).
 390:Libraries/STM32F10x_StdPeriph_Driver/src/stm32f10x_adc.c ****   */
 391:Libraries/STM32F10x_StdPeriph_Driver/src/stm32f10x_adc.c **** FlagStatus ADC_GetResetCalibrationStatus(ADC_TypeDef* ADCx)
 392:Libraries/STM32F10x_StdPeriph_Driver/src/stm32f10x_adc.c **** {
 334              		.loc 1 392 0
 335              		.cfi_startproc
 336              		@ args = 0, pretend = 0, frame = 0
 337              		@ frame_needed = 0, uses_anonymous_args = 0
 338              		@ link register save eliminated.
 339              	.LVL32:
 393:Libraries/STM32F10x_StdPeriph_Driver/src/stm32f10x_adc.c ****   FlagStatus bitstatus = RESET;
 394:Libraries/STM32F10x_StdPeriph_Driver/src/stm32f10x_adc.c ****   /* Check the parameters */
 395:Libraries/STM32F10x_StdPeriph_Driver/src/stm32f10x_adc.c ****   assert_param(IS_ADC_ALL_PERIPH(ADCx));
 396:Libraries/STM32F10x_StdPeriph_Driver/src/stm32f10x_adc.c ****   /* Check the status of RSTCAL bit */
 397:Libraries/STM32F10x_StdPeriph_Driver/src/stm32f10x_adc.c ****   if ((ADCx->CR2 & CR2_RSTCAL_Set) != (uint32_t)RESET)
 340              		.loc 1 397 0
 341 0000 8068     		ldr	r0, [r0, #8]
 342              	.LVL33:
 398:Libraries/STM32F10x_StdPeriph_Driver/src/stm32f10x_adc.c ****   {
 399:Libraries/STM32F10x_StdPeriph_Driver/src/stm32f10x_adc.c ****     /* RSTCAL bit is set */
 400:Libraries/STM32F10x_StdPeriph_Driver/src/stm32f10x_adc.c ****     bitstatus = SET;
 401:Libraries/STM32F10x_StdPeriph_Driver/src/stm32f10x_adc.c ****   }
 402:Libraries/STM32F10x_StdPeriph_Driver/src/stm32f10x_adc.c ****   else
 403:Libraries/STM32F10x_StdPeriph_Driver/src/stm32f10x_adc.c ****   {
 404:Libraries/STM32F10x_StdPeriph_Driver/src/stm32f10x_adc.c ****     /* RSTCAL bit is reset */
 405:Libraries/STM32F10x_StdPeriph_Driver/src/stm32f10x_adc.c ****     bitstatus = RESET;
 406:Libraries/STM32F10x_StdPeriph_Driver/src/stm32f10x_adc.c ****   }
 407:Libraries/STM32F10x_StdPeriph_Driver/src/stm32f10x_adc.c ****   /* Return the RSTCAL bit status */
 408:Libraries/STM32F10x_StdPeriph_Driver/src/stm32f10x_adc.c ****   return  bitstatus;
 409:Libraries/STM32F10x_StdPeriph_Driver/src/stm32f10x_adc.c **** }
 343              		.loc 1 409 0
 344 0002 C0F3C000 		ubfx	r0, r0, #3, #1
 345              	.LVL34:
 346 0006 7047     		bx	lr
 347              		.cfi_endproc
 348              	.LFE36:
 350              		.section	.text.ADC_StartCalibration,"ax",%progbits
 351              		.align	1
 352              		.global	ADC_StartCalibration
 353              		.thumb
 354              		.thumb_func
 356              	ADC_StartCalibration:
 357              	.LFB37:
 410:Libraries/STM32F10x_StdPeriph_Driver/src/stm32f10x_adc.c **** 
 411:Libraries/STM32F10x_StdPeriph_Driver/src/stm32f10x_adc.c **** /**
 412:Libraries/STM32F10x_StdPeriph_Driver/src/stm32f10x_adc.c ****   * @brief  Starts the selected ADC calibration process.
 413:Libraries/STM32F10x_StdPeriph_Driver/src/stm32f10x_adc.c ****   * @param  ADCx: where x can be 1, 2 or 3 to select the ADC peripheral.
 414:Libraries/STM32F10x_StdPeriph_Driver/src/stm32f10x_adc.c ****   * @retval None
 415:Libraries/STM32F10x_StdPeriph_Driver/src/stm32f10x_adc.c ****   */
 416:Libraries/STM32F10x_StdPeriph_Driver/src/stm32f10x_adc.c **** void ADC_StartCalibration(ADC_TypeDef* ADCx)
 417:Libraries/STM32F10x_StdPeriph_Driver/src/stm32f10x_adc.c **** {
 358              		.loc 1 417 0
 359              		.cfi_startproc
 360              		@ args = 0, pretend = 0, frame = 0
 361              		@ frame_needed = 0, uses_anonymous_args = 0
 362              		@ link register save eliminated.
 363              	.LVL35:
 418:Libraries/STM32F10x_StdPeriph_Driver/src/stm32f10x_adc.c ****   /* Check the parameters */
 419:Libraries/STM32F10x_StdPeriph_Driver/src/stm32f10x_adc.c ****   assert_param(IS_ADC_ALL_PERIPH(ADCx));
 420:Libraries/STM32F10x_StdPeriph_Driver/src/stm32f10x_adc.c ****   /* Enable the selected ADC calibration process */  
 421:Libraries/STM32F10x_StdPeriph_Driver/src/stm32f10x_adc.c ****   ADCx->CR2 |= CR2_CAL_Set;
 364              		.loc 1 421 0
 365 0000 8368     		ldr	r3, [r0, #8]
 366 0002 43F00403 		orr	r3, r3, #4
 367 0006 8360     		str	r3, [r0, #8]
 368 0008 7047     		bx	lr
 369              		.cfi_endproc
 370              	.LFE37:
 372              		.section	.text.ADC_GetCalibrationStatus,"ax",%progbits
 373              		.align	1
 374              		.global	ADC_GetCalibrationStatus
 375              		.thumb
 376              		.thumb_func
 378              	ADC_GetCalibrationStatus:
 379              	.LFB38:
 422:Libraries/STM32F10x_StdPeriph_Driver/src/stm32f10x_adc.c **** }
 423:Libraries/STM32F10x_StdPeriph_Driver/src/stm32f10x_adc.c **** 
 424:Libraries/STM32F10x_StdPeriph_Driver/src/stm32f10x_adc.c **** /**
 425:Libraries/STM32F10x_StdPeriph_Driver/src/stm32f10x_adc.c ****   * @brief  Gets the selected ADC calibration status.
 426:Libraries/STM32F10x_StdPeriph_Driver/src/stm32f10x_adc.c ****   * @param  ADCx: where x can be 1, 2 or 3 to select the ADC peripheral.
 427:Libraries/STM32F10x_StdPeriph_Driver/src/stm32f10x_adc.c ****   * @retval The new state of ADC calibration (SET or RESET).
 428:Libraries/STM32F10x_StdPeriph_Driver/src/stm32f10x_adc.c ****   */
 429:Libraries/STM32F10x_StdPeriph_Driver/src/stm32f10x_adc.c **** FlagStatus ADC_GetCalibrationStatus(ADC_TypeDef* ADCx)
 430:Libraries/STM32F10x_StdPeriph_Driver/src/stm32f10x_adc.c **** {
 380              		.loc 1 430 0
 381              		.cfi_startproc
 382              		@ args = 0, pretend = 0, frame = 0
 383              		@ frame_needed = 0, uses_anonymous_args = 0
 384              		@ link register save eliminated.
 385              	.LVL36:
 431:Libraries/STM32F10x_StdPeriph_Driver/src/stm32f10x_adc.c ****   FlagStatus bitstatus = RESET;
 432:Libraries/STM32F10x_StdPeriph_Driver/src/stm32f10x_adc.c ****   /* Check the parameters */
 433:Libraries/STM32F10x_StdPeriph_Driver/src/stm32f10x_adc.c ****   assert_param(IS_ADC_ALL_PERIPH(ADCx));
 434:Libraries/STM32F10x_StdPeriph_Driver/src/stm32f10x_adc.c ****   /* Check the status of CAL bit */
 435:Libraries/STM32F10x_StdPeriph_Driver/src/stm32f10x_adc.c ****   if ((ADCx->CR2 & CR2_CAL_Set) != (uint32_t)RESET)
 386              		.loc 1 435 0
 387 0000 8068     		ldr	r0, [r0, #8]
 388              	.LVL37:
 436:Libraries/STM32F10x_StdPeriph_Driver/src/stm32f10x_adc.c ****   {
 437:Libraries/STM32F10x_StdPeriph_Driver/src/stm32f10x_adc.c ****     /* CAL bit is set: calibration on going */
 438:Libraries/STM32F10x_StdPeriph_Driver/src/stm32f10x_adc.c ****     bitstatus = SET;
 439:Libraries/STM32F10x_StdPeriph_Driver/src/stm32f10x_adc.c ****   }
 440:Libraries/STM32F10x_StdPeriph_Driver/src/stm32f10x_adc.c ****   else
 441:Libraries/STM32F10x_StdPeriph_Driver/src/stm32f10x_adc.c ****   {
 442:Libraries/STM32F10x_StdPeriph_Driver/src/stm32f10x_adc.c ****     /* CAL bit is reset: end of calibration */
 443:Libraries/STM32F10x_StdPeriph_Driver/src/stm32f10x_adc.c ****     bitstatus = RESET;
 444:Libraries/STM32F10x_StdPeriph_Driver/src/stm32f10x_adc.c ****   }
 445:Libraries/STM32F10x_StdPeriph_Driver/src/stm32f10x_adc.c ****   /* Return the CAL bit status */
 446:Libraries/STM32F10x_StdPeriph_Driver/src/stm32f10x_adc.c ****   return  bitstatus;
 447:Libraries/STM32F10x_StdPeriph_Driver/src/stm32f10x_adc.c **** }
 389              		.loc 1 447 0
 390 0002 C0F38000 		ubfx	r0, r0, #2, #1
 391              	.LVL38:
 392 0006 7047     		bx	lr
 393              		.cfi_endproc
 394              	.LFE38:
 396              		.section	.text.ADC_SoftwareStartConvCmd,"ax",%progbits
 397              		.align	1
 398              		.global	ADC_SoftwareStartConvCmd
 399              		.thumb
 400              		.thumb_func
 402              	ADC_SoftwareStartConvCmd:
 403              	.LFB39:
 448:Libraries/STM32F10x_StdPeriph_Driver/src/stm32f10x_adc.c **** 
 449:Libraries/STM32F10x_StdPeriph_Driver/src/stm32f10x_adc.c **** /**
 450:Libraries/STM32F10x_StdPeriph_Driver/src/stm32f10x_adc.c ****   * @brief  Enables or disables the selected ADC software start conversion .
 451:Libraries/STM32F10x_StdPeriph_Driver/src/stm32f10x_adc.c ****   * @param  ADCx: where x can be 1, 2 or 3 to select the ADC peripheral.
 452:Libraries/STM32F10x_StdPeriph_Driver/src/stm32f10x_adc.c ****   * @param  NewState: new state of the selected ADC software start conversion.
 453:Libraries/STM32F10x_StdPeriph_Driver/src/stm32f10x_adc.c ****   *   This parameter can be: ENABLE or DISABLE.
 454:Libraries/STM32F10x_StdPeriph_Driver/src/stm32f10x_adc.c ****   * @retval None
 455:Libraries/STM32F10x_StdPeriph_Driver/src/stm32f10x_adc.c ****   */
 456:Libraries/STM32F10x_StdPeriph_Driver/src/stm32f10x_adc.c **** void ADC_SoftwareStartConvCmd(ADC_TypeDef* ADCx, FunctionalState NewState)
 457:Libraries/STM32F10x_StdPeriph_Driver/src/stm32f10x_adc.c **** {
 404              		.loc 1 457 0
 405              		.cfi_startproc
 406              		@ args = 0, pretend = 0, frame = 0
 407              		@ frame_needed = 0, uses_anonymous_args = 0
 408              		@ link register save eliminated.
 409              	.LVL39:
 458:Libraries/STM32F10x_StdPeriph_Driver/src/stm32f10x_adc.c ****   /* Check the parameters */
 459:Libraries/STM32F10x_StdPeriph_Driver/src/stm32f10x_adc.c ****   assert_param(IS_ADC_ALL_PERIPH(ADCx));
 460:Libraries/STM32F10x_StdPeriph_Driver/src/stm32f10x_adc.c ****   assert_param(IS_FUNCTIONAL_STATE(NewState));
 461:Libraries/STM32F10x_StdPeriph_Driver/src/stm32f10x_adc.c ****   if (NewState != DISABLE)
 462:Libraries/STM32F10x_StdPeriph_Driver/src/stm32f10x_adc.c ****   {
 463:Libraries/STM32F10x_StdPeriph_Driver/src/stm32f10x_adc.c ****     /* Enable the selected ADC conversion on external event and start the selected
 464:Libraries/STM32F10x_StdPeriph_Driver/src/stm32f10x_adc.c ****        ADC conversion */
 465:Libraries/STM32F10x_StdPeriph_Driver/src/stm32f10x_adc.c ****     ADCx->CR2 |= CR2_EXTTRIG_SWSTART_Set;
 410              		.loc 1 465 0
 411 0000 8368     		ldr	r3, [r0, #8]
 461:Libraries/STM32F10x_StdPeriph_Driver/src/stm32f10x_adc.c ****   {
 412              		.loc 1 461 0
 413 0002 11B1     		cbz	r1, .L30
 414              		.loc 1 465 0
 415 0004 43F4A003 		orr	r3, r3, #5242880
 416 0008 01E0     		b	.L32
 417              	.L30:
 466:Libraries/STM32F10x_StdPeriph_Driver/src/stm32f10x_adc.c ****   }
 467:Libraries/STM32F10x_StdPeriph_Driver/src/stm32f10x_adc.c ****   else
 468:Libraries/STM32F10x_StdPeriph_Driver/src/stm32f10x_adc.c ****   {
 469:Libraries/STM32F10x_StdPeriph_Driver/src/stm32f10x_adc.c ****     /* Disable the selected ADC conversion on external event and stop the selected
 470:Libraries/STM32F10x_StdPeriph_Driver/src/stm32f10x_adc.c ****        ADC conversion */
 471:Libraries/STM32F10x_StdPeriph_Driver/src/stm32f10x_adc.c ****     ADCx->CR2 &= CR2_EXTTRIG_SWSTART_Reset;
 418              		.loc 1 471 0
 419 000a 23F4A003 		bic	r3, r3, #5242880
 420              	.L32:
 421 000e 8360     		str	r3, [r0, #8]
 422 0010 7047     		bx	lr
 423              		.cfi_endproc
 424              	.LFE39:
 426              		.section	.text.ADC_GetSoftwareStartConvStatus,"ax",%progbits
 427              		.align	1
 428              		.global	ADC_GetSoftwareStartConvStatus
 429              		.thumb
 430              		.thumb_func
 432              	ADC_GetSoftwareStartConvStatus:
 433              	.LFB40:
 472:Libraries/STM32F10x_StdPeriph_Driver/src/stm32f10x_adc.c ****   }
 473:Libraries/STM32F10x_StdPeriph_Driver/src/stm32f10x_adc.c **** }
 474:Libraries/STM32F10x_StdPeriph_Driver/src/stm32f10x_adc.c **** 
 475:Libraries/STM32F10x_StdPeriph_Driver/src/stm32f10x_adc.c **** /**
 476:Libraries/STM32F10x_StdPeriph_Driver/src/stm32f10x_adc.c ****   * @brief  Gets the selected ADC Software start conversion Status.
 477:Libraries/STM32F10x_StdPeriph_Driver/src/stm32f10x_adc.c ****   * @param  ADCx: where x can be 1, 2 or 3 to select the ADC peripheral.
 478:Libraries/STM32F10x_StdPeriph_Driver/src/stm32f10x_adc.c ****   * @retval The new state of ADC software start conversion (SET or RESET).
 479:Libraries/STM32F10x_StdPeriph_Driver/src/stm32f10x_adc.c ****   */
 480:Libraries/STM32F10x_StdPeriph_Driver/src/stm32f10x_adc.c **** FlagStatus ADC_GetSoftwareStartConvStatus(ADC_TypeDef* ADCx)
 481:Libraries/STM32F10x_StdPeriph_Driver/src/stm32f10x_adc.c **** {
 434              		.loc 1 481 0
 435              		.cfi_startproc
 436              		@ args = 0, pretend = 0, frame = 0
 437              		@ frame_needed = 0, uses_anonymous_args = 0
 438              		@ link register save eliminated.
 439              	.LVL40:
 482:Libraries/STM32F10x_StdPeriph_Driver/src/stm32f10x_adc.c ****   FlagStatus bitstatus = RESET;
 483:Libraries/STM32F10x_StdPeriph_Driver/src/stm32f10x_adc.c ****   /* Check the parameters */
 484:Libraries/STM32F10x_StdPeriph_Driver/src/stm32f10x_adc.c ****   assert_param(IS_ADC_ALL_PERIPH(ADCx));
 485:Libraries/STM32F10x_StdPeriph_Driver/src/stm32f10x_adc.c ****   /* Check the status of SWSTART bit */
 486:Libraries/STM32F10x_StdPeriph_Driver/src/stm32f10x_adc.c ****   if ((ADCx->CR2 & CR2_SWSTART_Set) != (uint32_t)RESET)
 440              		.loc 1 486 0
 441 0000 8068     		ldr	r0, [r0, #8]
 442              	.LVL41:
 487:Libraries/STM32F10x_StdPeriph_Driver/src/stm32f10x_adc.c ****   {
 488:Libraries/STM32F10x_StdPeriph_Driver/src/stm32f10x_adc.c ****     /* SWSTART bit is set */
 489:Libraries/STM32F10x_StdPeriph_Driver/src/stm32f10x_adc.c ****     bitstatus = SET;
 490:Libraries/STM32F10x_StdPeriph_Driver/src/stm32f10x_adc.c ****   }
 491:Libraries/STM32F10x_StdPeriph_Driver/src/stm32f10x_adc.c ****   else
 492:Libraries/STM32F10x_StdPeriph_Driver/src/stm32f10x_adc.c ****   {
 493:Libraries/STM32F10x_StdPeriph_Driver/src/stm32f10x_adc.c ****     /* SWSTART bit is reset */
 494:Libraries/STM32F10x_StdPeriph_Driver/src/stm32f10x_adc.c ****     bitstatus = RESET;
 495:Libraries/STM32F10x_StdPeriph_Driver/src/stm32f10x_adc.c ****   }
 496:Libraries/STM32F10x_StdPeriph_Driver/src/stm32f10x_adc.c ****   /* Return the SWSTART bit status */
 497:Libraries/STM32F10x_StdPeriph_Driver/src/stm32f10x_adc.c ****   return  bitstatus;
 498:Libraries/STM32F10x_StdPeriph_Driver/src/stm32f10x_adc.c **** }
 443              		.loc 1 498 0
 444 0002 C0F38050 		ubfx	r0, r0, #22, #1
 445              	.LVL42:
 446 0006 7047     		bx	lr
 447              		.cfi_endproc
 448              	.LFE40:
 450              		.section	.text.ADC_DiscModeChannelCountConfig,"ax",%progbits
 451              		.align	1
 452              		.global	ADC_DiscModeChannelCountConfig
 453              		.thumb
 454              		.thumb_func
 456              	ADC_DiscModeChannelCountConfig:
 457              	.LFB41:
 499:Libraries/STM32F10x_StdPeriph_Driver/src/stm32f10x_adc.c **** 
 500:Libraries/STM32F10x_StdPeriph_Driver/src/stm32f10x_adc.c **** /**
 501:Libraries/STM32F10x_StdPeriph_Driver/src/stm32f10x_adc.c ****   * @brief  Configures the discontinuous mode for the selected ADC regular
 502:Libraries/STM32F10x_StdPeriph_Driver/src/stm32f10x_adc.c ****   *   group channel.
 503:Libraries/STM32F10x_StdPeriph_Driver/src/stm32f10x_adc.c ****   * @param  ADCx: where x can be 1, 2 or 3 to select the ADC peripheral.
 504:Libraries/STM32F10x_StdPeriph_Driver/src/stm32f10x_adc.c ****   * @param  Number: specifies the discontinuous mode regular channel
 505:Libraries/STM32F10x_StdPeriph_Driver/src/stm32f10x_adc.c ****   *   count value. This number must be between 1 and 8.
 506:Libraries/STM32F10x_StdPeriph_Driver/src/stm32f10x_adc.c ****   * @retval None
 507:Libraries/STM32F10x_StdPeriph_Driver/src/stm32f10x_adc.c ****   */
 508:Libraries/STM32F10x_StdPeriph_Driver/src/stm32f10x_adc.c **** void ADC_DiscModeChannelCountConfig(ADC_TypeDef* ADCx, uint8_t Number)
 509:Libraries/STM32F10x_StdPeriph_Driver/src/stm32f10x_adc.c **** {
 458              		.loc 1 509 0
 459              		.cfi_startproc
 460              		@ args = 0, pretend = 0, frame = 0
 461              		@ frame_needed = 0, uses_anonymous_args = 0
 462              		@ link register save eliminated.
 463              	.LVL43:
 510:Libraries/STM32F10x_StdPeriph_Driver/src/stm32f10x_adc.c ****   uint32_t tmpreg1 = 0;
 511:Libraries/STM32F10x_StdPeriph_Driver/src/stm32f10x_adc.c ****   uint32_t tmpreg2 = 0;
 512:Libraries/STM32F10x_StdPeriph_Driver/src/stm32f10x_adc.c ****   /* Check the parameters */
 513:Libraries/STM32F10x_StdPeriph_Driver/src/stm32f10x_adc.c ****   assert_param(IS_ADC_ALL_PERIPH(ADCx));
 514:Libraries/STM32F10x_StdPeriph_Driver/src/stm32f10x_adc.c ****   assert_param(IS_ADC_REGULAR_DISC_NUMBER(Number));
 515:Libraries/STM32F10x_StdPeriph_Driver/src/stm32f10x_adc.c ****   /* Get the old register value */
 516:Libraries/STM32F10x_StdPeriph_Driver/src/stm32f10x_adc.c ****   tmpreg1 = ADCx->CR1;
 464              		.loc 1 516 0
 465 0000 4368     		ldr	r3, [r0, #4]
 466              	.LVL44:
 517:Libraries/STM32F10x_StdPeriph_Driver/src/stm32f10x_adc.c ****   /* Clear the old discontinuous mode channel count */
 518:Libraries/STM32F10x_StdPeriph_Driver/src/stm32f10x_adc.c ****   tmpreg1 &= CR1_DISCNUM_Reset;
 519:Libraries/STM32F10x_StdPeriph_Driver/src/stm32f10x_adc.c ****   /* Set the discontinuous mode channel count */
 520:Libraries/STM32F10x_StdPeriph_Driver/src/stm32f10x_adc.c ****   tmpreg2 = Number - 1;
 467              		.loc 1 520 0
 468 0002 0139     		subs	r1, r1, #1
 469              	.LVL45:
 518:Libraries/STM32F10x_StdPeriph_Driver/src/stm32f10x_adc.c ****   /* Set the discontinuous mode channel count */
 470              		.loc 1 518 0
 471 0004 23F46043 		bic	r3, r3, #57344
 472              	.LVL46:
 521:Libraries/STM32F10x_StdPeriph_Driver/src/stm32f10x_adc.c ****   tmpreg1 |= tmpreg2 << 13;
 473              		.loc 1 521 0
 474 0008 43EA4133 		orr	r3, r3, r1, lsl #13
 475              	.LVL47:
 522:Libraries/STM32F10x_StdPeriph_Driver/src/stm32f10x_adc.c ****   /* Store the new register value */
 523:Libraries/STM32F10x_StdPeriph_Driver/src/stm32f10x_adc.c ****   ADCx->CR1 = tmpreg1;
 476              		.loc 1 523 0
 477 000c 4360     		str	r3, [r0, #4]
 478 000e 7047     		bx	lr
 479              		.cfi_endproc
 480              	.LFE41:
 482              		.section	.text.ADC_DiscModeCmd,"ax",%progbits
 483              		.align	1
 484              		.global	ADC_DiscModeCmd
 485              		.thumb
 486              		.thumb_func
 488              	ADC_DiscModeCmd:
 489              	.LFB42:
 524:Libraries/STM32F10x_StdPeriph_Driver/src/stm32f10x_adc.c **** }
 525:Libraries/STM32F10x_StdPeriph_Driver/src/stm32f10x_adc.c **** 
 526:Libraries/STM32F10x_StdPeriph_Driver/src/stm32f10x_adc.c **** /**
 527:Libraries/STM32F10x_StdPeriph_Driver/src/stm32f10x_adc.c ****   * @brief  Enables or disables the discontinuous mode on regular group
 528:Libraries/STM32F10x_StdPeriph_Driver/src/stm32f10x_adc.c ****   *   channel for the specified ADC
 529:Libraries/STM32F10x_StdPeriph_Driver/src/stm32f10x_adc.c ****   * @param  ADCx: where x can be 1, 2 or 3 to select the ADC peripheral.
 530:Libraries/STM32F10x_StdPeriph_Driver/src/stm32f10x_adc.c ****   * @param  NewState: new state of the selected ADC discontinuous mode
 531:Libraries/STM32F10x_StdPeriph_Driver/src/stm32f10x_adc.c ****   *   on regular group channel.
 532:Libraries/STM32F10x_StdPeriph_Driver/src/stm32f10x_adc.c ****   *   This parameter can be: ENABLE or DISABLE.
 533:Libraries/STM32F10x_StdPeriph_Driver/src/stm32f10x_adc.c ****   * @retval None
 534:Libraries/STM32F10x_StdPeriph_Driver/src/stm32f10x_adc.c ****   */
 535:Libraries/STM32F10x_StdPeriph_Driver/src/stm32f10x_adc.c **** void ADC_DiscModeCmd(ADC_TypeDef* ADCx, FunctionalState NewState)
 536:Libraries/STM32F10x_StdPeriph_Driver/src/stm32f10x_adc.c **** {
 490              		.loc 1 536 0
 491              		.cfi_startproc
 492              		@ args = 0, pretend = 0, frame = 0
 493              		@ frame_needed = 0, uses_anonymous_args = 0
 494              		@ link register save eliminated.
 495              	.LVL48:
 537:Libraries/STM32F10x_StdPeriph_Driver/src/stm32f10x_adc.c ****   /* Check the parameters */
 538:Libraries/STM32F10x_StdPeriph_Driver/src/stm32f10x_adc.c ****   assert_param(IS_ADC_ALL_PERIPH(ADCx));
 539:Libraries/STM32F10x_StdPeriph_Driver/src/stm32f10x_adc.c ****   assert_param(IS_FUNCTIONAL_STATE(NewState));
 540:Libraries/STM32F10x_StdPeriph_Driver/src/stm32f10x_adc.c ****   if (NewState != DISABLE)
 541:Libraries/STM32F10x_StdPeriph_Driver/src/stm32f10x_adc.c ****   {
 542:Libraries/STM32F10x_StdPeriph_Driver/src/stm32f10x_adc.c ****     /* Enable the selected ADC regular discontinuous mode */
 543:Libraries/STM32F10x_StdPeriph_Driver/src/stm32f10x_adc.c ****     ADCx->CR1 |= CR1_DISCEN_Set;
 496              		.loc 1 543 0
 497 0000 4368     		ldr	r3, [r0, #4]
 540:Libraries/STM32F10x_StdPeriph_Driver/src/stm32f10x_adc.c ****   {
 498              		.loc 1 540 0
 499 0002 11B1     		cbz	r1, .L36
 500              		.loc 1 543 0
 501 0004 43F40063 		orr	r3, r3, #2048
 502 0008 01E0     		b	.L38
 503              	.L36:
 544:Libraries/STM32F10x_StdPeriph_Driver/src/stm32f10x_adc.c ****   }
 545:Libraries/STM32F10x_StdPeriph_Driver/src/stm32f10x_adc.c ****   else
 546:Libraries/STM32F10x_StdPeriph_Driver/src/stm32f10x_adc.c ****   {
 547:Libraries/STM32F10x_StdPeriph_Driver/src/stm32f10x_adc.c ****     /* Disable the selected ADC regular discontinuous mode */
 548:Libraries/STM32F10x_StdPeriph_Driver/src/stm32f10x_adc.c ****     ADCx->CR1 &= CR1_DISCEN_Reset;
 504              		.loc 1 548 0
 505 000a 23F40063 		bic	r3, r3, #2048
 506              	.L38:
 507 000e 4360     		str	r3, [r0, #4]
 508 0010 7047     		bx	lr
 509              		.cfi_endproc
 510              	.LFE42:
 512              		.section	.text.ADC_RegularChannelConfig,"ax",%progbits
 513              		.align	1
 514              		.global	ADC_RegularChannelConfig
 515              		.thumb
 516              		.thumb_func
 518              	ADC_RegularChannelConfig:
 519              	.LFB43:
 549:Libraries/STM32F10x_StdPeriph_Driver/src/stm32f10x_adc.c ****   }
 550:Libraries/STM32F10x_StdPeriph_Driver/src/stm32f10x_adc.c **** }
 551:Libraries/STM32F10x_StdPeriph_Driver/src/stm32f10x_adc.c **** 
 552:Libraries/STM32F10x_StdPeriph_Driver/src/stm32f10x_adc.c **** /**
 553:Libraries/STM32F10x_StdPeriph_Driver/src/stm32f10x_adc.c ****   * @brief  Configures for the selected ADC regular channel its corresponding
 554:Libraries/STM32F10x_StdPeriph_Driver/src/stm32f10x_adc.c ****   *   rank in the sequencer and its sample time.
 555:Libraries/STM32F10x_StdPeriph_Driver/src/stm32f10x_adc.c ****   * @param  ADCx: where x can be 1, 2 or 3 to select the ADC peripheral.
 556:Libraries/STM32F10x_StdPeriph_Driver/src/stm32f10x_adc.c ****   * @param  ADC_Channel: the ADC channel to configure. 
 557:Libraries/STM32F10x_StdPeriph_Driver/src/stm32f10x_adc.c ****   *   This parameter can be one of the following values:
 558:Libraries/STM32F10x_StdPeriph_Driver/src/stm32f10x_adc.c ****   *     @arg ADC_Channel_0: ADC Channel0 selected
 559:Libraries/STM32F10x_StdPeriph_Driver/src/stm32f10x_adc.c ****   *     @arg ADC_Channel_1: ADC Channel1 selected
 560:Libraries/STM32F10x_StdPeriph_Driver/src/stm32f10x_adc.c ****   *     @arg ADC_Channel_2: ADC Channel2 selected
 561:Libraries/STM32F10x_StdPeriph_Driver/src/stm32f10x_adc.c ****   *     @arg ADC_Channel_3: ADC Channel3 selected
 562:Libraries/STM32F10x_StdPeriph_Driver/src/stm32f10x_adc.c ****   *     @arg ADC_Channel_4: ADC Channel4 selected
 563:Libraries/STM32F10x_StdPeriph_Driver/src/stm32f10x_adc.c ****   *     @arg ADC_Channel_5: ADC Channel5 selected
 564:Libraries/STM32F10x_StdPeriph_Driver/src/stm32f10x_adc.c ****   *     @arg ADC_Channel_6: ADC Channel6 selected
 565:Libraries/STM32F10x_StdPeriph_Driver/src/stm32f10x_adc.c ****   *     @arg ADC_Channel_7: ADC Channel7 selected
 566:Libraries/STM32F10x_StdPeriph_Driver/src/stm32f10x_adc.c ****   *     @arg ADC_Channel_8: ADC Channel8 selected
 567:Libraries/STM32F10x_StdPeriph_Driver/src/stm32f10x_adc.c ****   *     @arg ADC_Channel_9: ADC Channel9 selected
 568:Libraries/STM32F10x_StdPeriph_Driver/src/stm32f10x_adc.c ****   *     @arg ADC_Channel_10: ADC Channel10 selected
 569:Libraries/STM32F10x_StdPeriph_Driver/src/stm32f10x_adc.c ****   *     @arg ADC_Channel_11: ADC Channel11 selected
 570:Libraries/STM32F10x_StdPeriph_Driver/src/stm32f10x_adc.c ****   *     @arg ADC_Channel_12: ADC Channel12 selected
 571:Libraries/STM32F10x_StdPeriph_Driver/src/stm32f10x_adc.c ****   *     @arg ADC_Channel_13: ADC Channel13 selected
 572:Libraries/STM32F10x_StdPeriph_Driver/src/stm32f10x_adc.c ****   *     @arg ADC_Channel_14: ADC Channel14 selected
 573:Libraries/STM32F10x_StdPeriph_Driver/src/stm32f10x_adc.c ****   *     @arg ADC_Channel_15: ADC Channel15 selected
 574:Libraries/STM32F10x_StdPeriph_Driver/src/stm32f10x_adc.c ****   *     @arg ADC_Channel_16: ADC Channel16 selected
 575:Libraries/STM32F10x_StdPeriph_Driver/src/stm32f10x_adc.c ****   *     @arg ADC_Channel_17: ADC Channel17 selected
 576:Libraries/STM32F10x_StdPeriph_Driver/src/stm32f10x_adc.c ****   * @param  Rank: The rank in the regular group sequencer. This parameter must be between 1 to 16.
 577:Libraries/STM32F10x_StdPeriph_Driver/src/stm32f10x_adc.c ****   * @param  ADC_SampleTime: The sample time value to be set for the selected channel. 
 578:Libraries/STM32F10x_StdPeriph_Driver/src/stm32f10x_adc.c ****   *   This parameter can be one of the following values:
 579:Libraries/STM32F10x_StdPeriph_Driver/src/stm32f10x_adc.c ****   *     @arg ADC_SampleTime_1Cycles5: Sample time equal to 1.5 cycles
 580:Libraries/STM32F10x_StdPeriph_Driver/src/stm32f10x_adc.c ****   *     @arg ADC_SampleTime_7Cycles5: Sample time equal to 7.5 cycles
 581:Libraries/STM32F10x_StdPeriph_Driver/src/stm32f10x_adc.c ****   *     @arg ADC_SampleTime_13Cycles5: Sample time equal to 13.5 cycles
 582:Libraries/STM32F10x_StdPeriph_Driver/src/stm32f10x_adc.c ****   *     @arg ADC_SampleTime_28Cycles5: Sample time equal to 28.5 cycles	
 583:Libraries/STM32F10x_StdPeriph_Driver/src/stm32f10x_adc.c ****   *     @arg ADC_SampleTime_41Cycles5: Sample time equal to 41.5 cycles	
 584:Libraries/STM32F10x_StdPeriph_Driver/src/stm32f10x_adc.c ****   *     @arg ADC_SampleTime_55Cycles5: Sample time equal to 55.5 cycles	
 585:Libraries/STM32F10x_StdPeriph_Driver/src/stm32f10x_adc.c ****   *     @arg ADC_SampleTime_71Cycles5: Sample time equal to 71.5 cycles	
 586:Libraries/STM32F10x_StdPeriph_Driver/src/stm32f10x_adc.c ****   *     @arg ADC_SampleTime_239Cycles5: Sample time equal to 239.5 cycles	
 587:Libraries/STM32F10x_StdPeriph_Driver/src/stm32f10x_adc.c ****   * @retval None
 588:Libraries/STM32F10x_StdPeriph_Driver/src/stm32f10x_adc.c ****   */
 589:Libraries/STM32F10x_StdPeriph_Driver/src/stm32f10x_adc.c **** void ADC_RegularChannelConfig(ADC_TypeDef* ADCx, uint8_t ADC_Channel, uint8_t Rank, uint8_t ADC_Sam
 590:Libraries/STM32F10x_StdPeriph_Driver/src/stm32f10x_adc.c **** {
 520              		.loc 1 590 0
 521              		.cfi_startproc
 522              		@ args = 0, pretend = 0, frame = 0
 523              		@ frame_needed = 0, uses_anonymous_args = 0
 524              	.LVL49:
 591:Libraries/STM32F10x_StdPeriph_Driver/src/stm32f10x_adc.c ****   uint32_t tmpreg1 = 0, tmpreg2 = 0;
 592:Libraries/STM32F10x_StdPeriph_Driver/src/stm32f10x_adc.c ****   /* Check the parameters */
 593:Libraries/STM32F10x_StdPeriph_Driver/src/stm32f10x_adc.c ****   assert_param(IS_ADC_ALL_PERIPH(ADCx));
 594:Libraries/STM32F10x_StdPeriph_Driver/src/stm32f10x_adc.c ****   assert_param(IS_ADC_CHANNEL(ADC_Channel));
 595:Libraries/STM32F10x_StdPeriph_Driver/src/stm32f10x_adc.c ****   assert_param(IS_ADC_REGULAR_RANK(Rank));
 596:Libraries/STM32F10x_StdPeriph_Driver/src/stm32f10x_adc.c ****   assert_param(IS_ADC_SAMPLE_TIME(ADC_SampleTime));
 597:Libraries/STM32F10x_StdPeriph_Driver/src/stm32f10x_adc.c ****   /* if ADC_Channel_10 ... ADC_Channel_17 is selected */
 598:Libraries/STM32F10x_StdPeriph_Driver/src/stm32f10x_adc.c ****   if (ADC_Channel > ADC_Channel_9)
 525              		.loc 1 598 0
 526 0000 0929     		cmp	r1, #9
 590:Libraries/STM32F10x_StdPeriph_Driver/src/stm32f10x_adc.c ****   uint32_t tmpreg1 = 0, tmpreg2 = 0;
 527              		.loc 1 590 0
 528 0002 70B5     		push	{r4, r5, r6, lr}
 529              		.cfi_def_cfa_offset 16
 530              		.cfi_offset 4, -16
 531              		.cfi_offset 5, -12
 532              		.cfi_offset 6, -8
 533              		.cfi_offset 14, -4
 534              		.loc 1 598 0
 535 0004 0CD9     		bls	.L40
 599:Libraries/STM32F10x_StdPeriph_Driver/src/stm32f10x_adc.c ****   {
 600:Libraries/STM32F10x_StdPeriph_Driver/src/stm32f10x_adc.c ****     /* Get the old register value */
 601:Libraries/STM32F10x_StdPeriph_Driver/src/stm32f10x_adc.c ****     tmpreg1 = ADCx->SMPR1;
 602:Libraries/STM32F10x_StdPeriph_Driver/src/stm32f10x_adc.c ****     /* Calculate the mask to clear */
 603:Libraries/STM32F10x_StdPeriph_Driver/src/stm32f10x_adc.c ****     tmpreg2 = SMPR1_SMP_Set << (3 * (ADC_Channel - 10));
 536              		.loc 1 603 0
 537 0006 A1F10A04 		sub	r4, r1, #10
 601:Libraries/STM32F10x_StdPeriph_Driver/src/stm32f10x_adc.c ****     /* Calculate the mask to clear */
 538              		.loc 1 601 0
 539 000a C668     		ldr	r6, [r0, #12]
 540              	.LVL50:
 541              		.loc 1 603 0
 542 000c 04EB4404 		add	r4, r4, r4, lsl #1
 543              	.LVL51:
 544 0010 0725     		movs	r5, #7
 545 0012 A540     		lsls	r5, r5, r4
 546              	.LVL52:
 604:Libraries/STM32F10x_StdPeriph_Driver/src/stm32f10x_adc.c ****     /* Clear the old channel sample time */
 605:Libraries/STM32F10x_StdPeriph_Driver/src/stm32f10x_adc.c ****     tmpreg1 &= ~tmpreg2;
 547              		.loc 1 605 0
 548 0014 26EA0505 		bic	r5, r6, r5
 549              	.LVL53:
 606:Libraries/STM32F10x_StdPeriph_Driver/src/stm32f10x_adc.c ****     /* Calculate the mask to set */
 607:Libraries/STM32F10x_StdPeriph_Driver/src/stm32f10x_adc.c ****     tmpreg2 = (uint32_t)ADC_SampleTime << (3 * (ADC_Channel - 10));
 550              		.loc 1 607 0
 551 0018 A340     		lsls	r3, r3, r4
 552              	.LVL54:
 608:Libraries/STM32F10x_StdPeriph_Driver/src/stm32f10x_adc.c ****     /* Set the new channel sample time */
 609:Libraries/STM32F10x_StdPeriph_Driver/src/stm32f10x_adc.c ****     tmpreg1 |= tmpreg2;
 553              		.loc 1 609 0
 554 001a 2B43     		orrs	r3, r3, r5
 555              	.LVL55:
 610:Libraries/STM32F10x_StdPeriph_Driver/src/stm32f10x_adc.c ****     /* Store the new register value */
 611:Libraries/STM32F10x_StdPeriph_Driver/src/stm32f10x_adc.c ****     ADCx->SMPR1 = tmpreg1;
 556              		.loc 1 611 0
 557 001c C360     		str	r3, [r0, #12]
 558 001e 09E0     		b	.L41
 559              	.LVL56:
 560              	.L40:
 612:Libraries/STM32F10x_StdPeriph_Driver/src/stm32f10x_adc.c ****   }
 613:Libraries/STM32F10x_StdPeriph_Driver/src/stm32f10x_adc.c ****   else /* ADC_Channel include in ADC_Channel_[0..9] */
 614:Libraries/STM32F10x_StdPeriph_Driver/src/stm32f10x_adc.c ****   {
 615:Libraries/STM32F10x_StdPeriph_Driver/src/stm32f10x_adc.c ****     /* Get the old register value */
 616:Libraries/STM32F10x_StdPeriph_Driver/src/stm32f10x_adc.c ****     tmpreg1 = ADCx->SMPR2;
 561              		.loc 1 616 0
 562 0020 0569     		ldr	r5, [r0, #16]
 563              	.LVL57:
 617:Libraries/STM32F10x_StdPeriph_Driver/src/stm32f10x_adc.c ****     /* Calculate the mask to clear */
 618:Libraries/STM32F10x_StdPeriph_Driver/src/stm32f10x_adc.c ****     tmpreg2 = SMPR2_SMP_Set << (3 * ADC_Channel);
 564              		.loc 1 618 0
 565 0022 01EB4106 		add	r6, r1, r1, lsl #1
 566              	.LVL58:
 567 0026 0724     		movs	r4, #7
 568 0028 B440     		lsls	r4, r4, r6
 569              	.LVL59:
 619:Libraries/STM32F10x_StdPeriph_Driver/src/stm32f10x_adc.c ****     /* Clear the old channel sample time */
 620:Libraries/STM32F10x_StdPeriph_Driver/src/stm32f10x_adc.c ****     tmpreg1 &= ~tmpreg2;
 570              		.loc 1 620 0
 571 002a 25EA0404 		bic	r4, r5, r4
 572              	.LVL60:
 621:Libraries/STM32F10x_StdPeriph_Driver/src/stm32f10x_adc.c ****     /* Calculate the mask to set */
 622:Libraries/STM32F10x_StdPeriph_Driver/src/stm32f10x_adc.c ****     tmpreg2 = (uint32_t)ADC_SampleTime << (3 * ADC_Channel);
 573              		.loc 1 622 0
 574 002e B340     		lsls	r3, r3, r6
 575              	.LVL61:
 623:Libraries/STM32F10x_StdPeriph_Driver/src/stm32f10x_adc.c ****     /* Set the new channel sample time */
 624:Libraries/STM32F10x_StdPeriph_Driver/src/stm32f10x_adc.c ****     tmpreg1 |= tmpreg2;
 576              		.loc 1 624 0
 577 0030 2343     		orrs	r3, r3, r4
 578              	.LVL62:
 625:Libraries/STM32F10x_StdPeriph_Driver/src/stm32f10x_adc.c ****     /* Store the new register value */
 626:Libraries/STM32F10x_StdPeriph_Driver/src/stm32f10x_adc.c ****     ADCx->SMPR2 = tmpreg1;
 579              		.loc 1 626 0
 580 0032 0361     		str	r3, [r0, #16]
 581              	.LVL63:
 582              	.L41:
 627:Libraries/STM32F10x_StdPeriph_Driver/src/stm32f10x_adc.c ****   }
 628:Libraries/STM32F10x_StdPeriph_Driver/src/stm32f10x_adc.c ****   /* For Rank 1 to 6 */
 629:Libraries/STM32F10x_StdPeriph_Driver/src/stm32f10x_adc.c ****   if (Rank < 7)
 583              		.loc 1 629 0
 584 0034 062A     		cmp	r2, #6
 585 0036 0BD8     		bhi	.L42
 630:Libraries/STM32F10x_StdPeriph_Driver/src/stm32f10x_adc.c ****   {
 631:Libraries/STM32F10x_StdPeriph_Driver/src/stm32f10x_adc.c ****     /* Get the old register value */
 632:Libraries/STM32F10x_StdPeriph_Driver/src/stm32f10x_adc.c ****     tmpreg1 = ADCx->SQR3;
 633:Libraries/STM32F10x_StdPeriph_Driver/src/stm32f10x_adc.c ****     /* Calculate the mask to clear */
 634:Libraries/STM32F10x_StdPeriph_Driver/src/stm32f10x_adc.c ****     tmpreg2 = SQR3_SQ_Set << (5 * (Rank - 1));
 586              		.loc 1 634 0
 587 0038 013A     		subs	r2, r2, #1
 588              	.LVL64:
 632:Libraries/STM32F10x_StdPeriph_Driver/src/stm32f10x_adc.c ****     /* Calculate the mask to clear */
 589              		.loc 1 632 0
 590 003a 446B     		ldr	r4, [r0, #52]
 591              	.LVL65:
 592              		.loc 1 634 0
 593 003c 02EB8202 		add	r2, r2, r2, lsl #2
 594              	.LVL66:
 595 0040 1F23     		movs	r3, #31
 596 0042 9340     		lsls	r3, r3, r2
 597              	.LVL67:
 635:Libraries/STM32F10x_StdPeriph_Driver/src/stm32f10x_adc.c ****     /* Clear the old SQx bits for the selected rank */
 636:Libraries/STM32F10x_StdPeriph_Driver/src/stm32f10x_adc.c ****     tmpreg1 &= ~tmpreg2;
 598              		.loc 1 636 0
 599 0044 24EA0303 		bic	r3, r4, r3
 600              	.LVL68:
 637:Libraries/STM32F10x_StdPeriph_Driver/src/stm32f10x_adc.c ****     /* Calculate the mask to set */
 638:Libraries/STM32F10x_StdPeriph_Driver/src/stm32f10x_adc.c ****     tmpreg2 = (uint32_t)ADC_Channel << (5 * (Rank - 1));
 601              		.loc 1 638 0
 602 0048 9140     		lsls	r1, r1, r2
 603              	.LVL69:
 639:Libraries/STM32F10x_StdPeriph_Driver/src/stm32f10x_adc.c ****     /* Set the SQx bits for the selected rank */
 640:Libraries/STM32F10x_StdPeriph_Driver/src/stm32f10x_adc.c ****     tmpreg1 |= tmpreg2;
 604              		.loc 1 640 0
 605 004a 1943     		orrs	r1, r1, r3
 606              	.LVL70:
 641:Libraries/STM32F10x_StdPeriph_Driver/src/stm32f10x_adc.c ****     /* Store the new register value */
 642:Libraries/STM32F10x_StdPeriph_Driver/src/stm32f10x_adc.c ****     ADCx->SQR3 = tmpreg1;
 607              		.loc 1 642 0
 608 004c 4163     		str	r1, [r0, #52]
 609 004e 70BD     		pop	{r4, r5, r6, pc}
 610              	.LVL71:
 611              	.L42:
 643:Libraries/STM32F10x_StdPeriph_Driver/src/stm32f10x_adc.c ****   }
 644:Libraries/STM32F10x_StdPeriph_Driver/src/stm32f10x_adc.c ****   /* For Rank 7 to 12 */
 645:Libraries/STM32F10x_StdPeriph_Driver/src/stm32f10x_adc.c ****   else if (Rank < 13)
 612              		.loc 1 645 0
 613 0050 0C2A     		cmp	r2, #12
 614 0052 0BD8     		bhi	.L44
 646:Libraries/STM32F10x_StdPeriph_Driver/src/stm32f10x_adc.c ****   {
 647:Libraries/STM32F10x_StdPeriph_Driver/src/stm32f10x_adc.c ****     /* Get the old register value */
 648:Libraries/STM32F10x_StdPeriph_Driver/src/stm32f10x_adc.c ****     tmpreg1 = ADCx->SQR2;
 649:Libraries/STM32F10x_StdPeriph_Driver/src/stm32f10x_adc.c ****     /* Calculate the mask to clear */
 650:Libraries/STM32F10x_StdPeriph_Driver/src/stm32f10x_adc.c ****     tmpreg2 = SQR2_SQ_Set << (5 * (Rank - 7));
 615              		.loc 1 650 0
 616 0054 073A     		subs	r2, r2, #7
 617              	.LVL72:
 648:Libraries/STM32F10x_StdPeriph_Driver/src/stm32f10x_adc.c ****     /* Calculate the mask to clear */
 618              		.loc 1 648 0
 619 0056 046B     		ldr	r4, [r0, #48]
 620              	.LVL73:
 621              		.loc 1 650 0
 622 0058 02EB8202 		add	r2, r2, r2, lsl #2
 623              	.LVL74:
 624 005c 1F23     		movs	r3, #31
 625 005e 9340     		lsls	r3, r3, r2
 626              	.LVL75:
 651:Libraries/STM32F10x_StdPeriph_Driver/src/stm32f10x_adc.c ****     /* Clear the old SQx bits for the selected rank */
 652:Libraries/STM32F10x_StdPeriph_Driver/src/stm32f10x_adc.c ****     tmpreg1 &= ~tmpreg2;
 627              		.loc 1 652 0
 628 0060 24EA0303 		bic	r3, r4, r3
 629              	.LVL76:
 653:Libraries/STM32F10x_StdPeriph_Driver/src/stm32f10x_adc.c ****     /* Calculate the mask to set */
 654:Libraries/STM32F10x_StdPeriph_Driver/src/stm32f10x_adc.c ****     tmpreg2 = (uint32_t)ADC_Channel << (5 * (Rank - 7));
 630              		.loc 1 654 0
 631 0064 9140     		lsls	r1, r1, r2
 632              	.LVL77:
 655:Libraries/STM32F10x_StdPeriph_Driver/src/stm32f10x_adc.c ****     /* Set the SQx bits for the selected rank */
 656:Libraries/STM32F10x_StdPeriph_Driver/src/stm32f10x_adc.c ****     tmpreg1 |= tmpreg2;
 633              		.loc 1 656 0
 634 0066 1943     		orrs	r1, r1, r3
 635              	.LVL78:
 657:Libraries/STM32F10x_StdPeriph_Driver/src/stm32f10x_adc.c ****     /* Store the new register value */
 658:Libraries/STM32F10x_StdPeriph_Driver/src/stm32f10x_adc.c ****     ADCx->SQR2 = tmpreg1;
 636              		.loc 1 658 0
 637 0068 0163     		str	r1, [r0, #48]
 638 006a 70BD     		pop	{r4, r5, r6, pc}
 639              	.LVL79:
 640              	.L44:
 659:Libraries/STM32F10x_StdPeriph_Driver/src/stm32f10x_adc.c ****   }
 660:Libraries/STM32F10x_StdPeriph_Driver/src/stm32f10x_adc.c ****   /* For Rank 13 to 16 */
 661:Libraries/STM32F10x_StdPeriph_Driver/src/stm32f10x_adc.c ****   else
 662:Libraries/STM32F10x_StdPeriph_Driver/src/stm32f10x_adc.c ****   {
 663:Libraries/STM32F10x_StdPeriph_Driver/src/stm32f10x_adc.c ****     /* Get the old register value */
 664:Libraries/STM32F10x_StdPeriph_Driver/src/stm32f10x_adc.c ****     tmpreg1 = ADCx->SQR1;
 665:Libraries/STM32F10x_StdPeriph_Driver/src/stm32f10x_adc.c ****     /* Calculate the mask to clear */
 666:Libraries/STM32F10x_StdPeriph_Driver/src/stm32f10x_adc.c ****     tmpreg2 = SQR1_SQ_Set << (5 * (Rank - 13));
 641              		.loc 1 666 0
 642 006c 0D3A     		subs	r2, r2, #13
 643              	.LVL80:
 664:Libraries/STM32F10x_StdPeriph_Driver/src/stm32f10x_adc.c ****     /* Calculate the mask to clear */
 644              		.loc 1 664 0
 645 006e C46A     		ldr	r4, [r0, #44]
 646              	.LVL81:
 647              		.loc 1 666 0
 648 0070 02EB8202 		add	r2, r2, r2, lsl #2
 649              	.LVL82:
 650 0074 1F23     		movs	r3, #31
 651 0076 9340     		lsls	r3, r3, r2
 652              	.LVL83:
 667:Libraries/STM32F10x_StdPeriph_Driver/src/stm32f10x_adc.c ****     /* Clear the old SQx bits for the selected rank */
 668:Libraries/STM32F10x_StdPeriph_Driver/src/stm32f10x_adc.c ****     tmpreg1 &= ~tmpreg2;
 653              		.loc 1 668 0
 654 0078 24EA0303 		bic	r3, r4, r3
 655              	.LVL84:
 669:Libraries/STM32F10x_StdPeriph_Driver/src/stm32f10x_adc.c ****     /* Calculate the mask to set */
 670:Libraries/STM32F10x_StdPeriph_Driver/src/stm32f10x_adc.c ****     tmpreg2 = (uint32_t)ADC_Channel << (5 * (Rank - 13));
 656              		.loc 1 670 0
 657 007c 9140     		lsls	r1, r1, r2
 658              	.LVL85:
 671:Libraries/STM32F10x_StdPeriph_Driver/src/stm32f10x_adc.c ****     /* Set the SQx bits for the selected rank */
 672:Libraries/STM32F10x_StdPeriph_Driver/src/stm32f10x_adc.c ****     tmpreg1 |= tmpreg2;
 659              		.loc 1 672 0
 660 007e 1943     		orrs	r1, r1, r3
 661              	.LVL86:
 673:Libraries/STM32F10x_StdPeriph_Driver/src/stm32f10x_adc.c ****     /* Store the new register value */
 674:Libraries/STM32F10x_StdPeriph_Driver/src/stm32f10x_adc.c ****     ADCx->SQR1 = tmpreg1;
 662              		.loc 1 674 0
 663 0080 C162     		str	r1, [r0, #44]
 664 0082 70BD     		pop	{r4, r5, r6, pc}
 665              		.cfi_endproc
 666              	.LFE43:
 668              		.section	.text.ADC_ExternalTrigConvCmd,"ax",%progbits
 669              		.align	1
 670              		.global	ADC_ExternalTrigConvCmd
 671              		.thumb
 672              		.thumb_func
 674              	ADC_ExternalTrigConvCmd:
 675              	.LFB44:
 675:Libraries/STM32F10x_StdPeriph_Driver/src/stm32f10x_adc.c ****   }
 676:Libraries/STM32F10x_StdPeriph_Driver/src/stm32f10x_adc.c **** }
 677:Libraries/STM32F10x_StdPeriph_Driver/src/stm32f10x_adc.c **** 
 678:Libraries/STM32F10x_StdPeriph_Driver/src/stm32f10x_adc.c **** /**
 679:Libraries/STM32F10x_StdPeriph_Driver/src/stm32f10x_adc.c ****   * @brief  Enables or disables the ADCx conversion through external trigger.
 680:Libraries/STM32F10x_StdPeriph_Driver/src/stm32f10x_adc.c ****   * @param  ADCx: where x can be 1, 2 or 3 to select the ADC peripheral.
 681:Libraries/STM32F10x_StdPeriph_Driver/src/stm32f10x_adc.c ****   * @param  NewState: new state of the selected ADC external trigger start of conversion.
 682:Libraries/STM32F10x_StdPeriph_Driver/src/stm32f10x_adc.c ****   *   This parameter can be: ENABLE or DISABLE.
 683:Libraries/STM32F10x_StdPeriph_Driver/src/stm32f10x_adc.c ****   * @retval None
 684:Libraries/STM32F10x_StdPeriph_Driver/src/stm32f10x_adc.c ****   */
 685:Libraries/STM32F10x_StdPeriph_Driver/src/stm32f10x_adc.c **** void ADC_ExternalTrigConvCmd(ADC_TypeDef* ADCx, FunctionalState NewState)
 686:Libraries/STM32F10x_StdPeriph_Driver/src/stm32f10x_adc.c **** {
 676              		.loc 1 686 0
 677              		.cfi_startproc
 678              		@ args = 0, pretend = 0, frame = 0
 679              		@ frame_needed = 0, uses_anonymous_args = 0
 680              		@ link register save eliminated.
 681              	.LVL87:
 687:Libraries/STM32F10x_StdPeriph_Driver/src/stm32f10x_adc.c ****   /* Check the parameters */
 688:Libraries/STM32F10x_StdPeriph_Driver/src/stm32f10x_adc.c ****   assert_param(IS_ADC_ALL_PERIPH(ADCx));
 689:Libraries/STM32F10x_StdPeriph_Driver/src/stm32f10x_adc.c ****   assert_param(IS_FUNCTIONAL_STATE(NewState));
 690:Libraries/STM32F10x_StdPeriph_Driver/src/stm32f10x_adc.c ****   if (NewState != DISABLE)
 691:Libraries/STM32F10x_StdPeriph_Driver/src/stm32f10x_adc.c ****   {
 692:Libraries/STM32F10x_StdPeriph_Driver/src/stm32f10x_adc.c ****     /* Enable the selected ADC conversion on external event */
 693:Libraries/STM32F10x_StdPeriph_Driver/src/stm32f10x_adc.c ****     ADCx->CR2 |= CR2_EXTTRIG_Set;
 682              		.loc 1 693 0
 683 0000 8368     		ldr	r3, [r0, #8]
 690:Libraries/STM32F10x_StdPeriph_Driver/src/stm32f10x_adc.c ****   {
 684              		.loc 1 690 0
 685 0002 11B1     		cbz	r1, .L46
 686              		.loc 1 693 0
 687 0004 43F48013 		orr	r3, r3, #1048576
 688 0008 01E0     		b	.L48
 689              	.L46:
 694:Libraries/STM32F10x_StdPeriph_Driver/src/stm32f10x_adc.c ****   }
 695:Libraries/STM32F10x_StdPeriph_Driver/src/stm32f10x_adc.c ****   else
 696:Libraries/STM32F10x_StdPeriph_Driver/src/stm32f10x_adc.c ****   {
 697:Libraries/STM32F10x_StdPeriph_Driver/src/stm32f10x_adc.c ****     /* Disable the selected ADC conversion on external event */
 698:Libraries/STM32F10x_StdPeriph_Driver/src/stm32f10x_adc.c ****     ADCx->CR2 &= CR2_EXTTRIG_Reset;
 690              		.loc 1 698 0
 691 000a 23F48013 		bic	r3, r3, #1048576
 692              	.L48:
 693 000e 8360     		str	r3, [r0, #8]
 694 0010 7047     		bx	lr
 695              		.cfi_endproc
 696              	.LFE44:
 698              		.section	.text.ADC_GetConversionValue,"ax",%progbits
 699              		.align	1
 700              		.global	ADC_GetConversionValue
 701              		.thumb
 702              		.thumb_func
 704              	ADC_GetConversionValue:
 705              	.LFB45:
 699:Libraries/STM32F10x_StdPeriph_Driver/src/stm32f10x_adc.c ****   }
 700:Libraries/STM32F10x_StdPeriph_Driver/src/stm32f10x_adc.c **** }
 701:Libraries/STM32F10x_StdPeriph_Driver/src/stm32f10x_adc.c **** 
 702:Libraries/STM32F10x_StdPeriph_Driver/src/stm32f10x_adc.c **** /**
 703:Libraries/STM32F10x_StdPeriph_Driver/src/stm32f10x_adc.c ****   * @brief  Returns the last ADCx conversion result data for regular channel.
 704:Libraries/STM32F10x_StdPeriph_Driver/src/stm32f10x_adc.c ****   * @param  ADCx: where x can be 1, 2 or 3 to select the ADC peripheral.
 705:Libraries/STM32F10x_StdPeriph_Driver/src/stm32f10x_adc.c ****   * @retval The Data conversion value.
 706:Libraries/STM32F10x_StdPeriph_Driver/src/stm32f10x_adc.c ****   */
 707:Libraries/STM32F10x_StdPeriph_Driver/src/stm32f10x_adc.c **** uint16_t ADC_GetConversionValue(ADC_TypeDef* ADCx)
 708:Libraries/STM32F10x_StdPeriph_Driver/src/stm32f10x_adc.c **** {
 706              		.loc 1 708 0
 707              		.cfi_startproc
 708              		@ args = 0, pretend = 0, frame = 0
 709              		@ frame_needed = 0, uses_anonymous_args = 0
 710              		@ link register save eliminated.
 711              	.LVL88:
 709:Libraries/STM32F10x_StdPeriph_Driver/src/stm32f10x_adc.c ****   /* Check the parameters */
 710:Libraries/STM32F10x_StdPeriph_Driver/src/stm32f10x_adc.c ****   assert_param(IS_ADC_ALL_PERIPH(ADCx));
 711:Libraries/STM32F10x_StdPeriph_Driver/src/stm32f10x_adc.c ****   /* Return the selected ADC conversion value */
 712:Libraries/STM32F10x_StdPeriph_Driver/src/stm32f10x_adc.c ****   return (uint16_t) ADCx->DR;
 712              		.loc 1 712 0
 713 0000 C06C     		ldr	r0, [r0, #76]
 714              	.LVL89:
 713:Libraries/STM32F10x_StdPeriph_Driver/src/stm32f10x_adc.c **** }
 715              		.loc 1 713 0
 716 0002 80B2     		uxth	r0, r0
 717 0004 7047     		bx	lr
 718              		.cfi_endproc
 719              	.LFE45:
 721              		.section	.text.ADC_GetDualModeConversionValue,"ax",%progbits
 722              		.align	1
 723              		.global	ADC_GetDualModeConversionValue
 724              		.thumb
 725              		.thumb_func
 727              	ADC_GetDualModeConversionValue:
 728              	.LFB46:
 714:Libraries/STM32F10x_StdPeriph_Driver/src/stm32f10x_adc.c **** 
 715:Libraries/STM32F10x_StdPeriph_Driver/src/stm32f10x_adc.c **** /**
 716:Libraries/STM32F10x_StdPeriph_Driver/src/stm32f10x_adc.c ****   * @brief  Returns the last ADC1 and ADC2 conversion result data in dual mode.
 717:Libraries/STM32F10x_StdPeriph_Driver/src/stm32f10x_adc.c ****   * @retval The Data conversion value.
 718:Libraries/STM32F10x_StdPeriph_Driver/src/stm32f10x_adc.c ****   */
 719:Libraries/STM32F10x_StdPeriph_Driver/src/stm32f10x_adc.c **** uint32_t ADC_GetDualModeConversionValue(void)
 720:Libraries/STM32F10x_StdPeriph_Driver/src/stm32f10x_adc.c **** {
 729              		.loc 1 720 0
 730              		.cfi_startproc
 731              		@ args = 0, pretend = 0, frame = 0
 732              		@ frame_needed = 0, uses_anonymous_args = 0
 733              		@ link register save eliminated.
 721:Libraries/STM32F10x_StdPeriph_Driver/src/stm32f10x_adc.c ****   /* Return the dual mode conversion value */
 722:Libraries/STM32F10x_StdPeriph_Driver/src/stm32f10x_adc.c ****   return (*(__IO uint32_t *) DR_ADDRESS);
 734              		.loc 1 722 0
 735 0000 014B     		ldr	r3, .L51
 736 0002 1868     		ldr	r0, [r3]
 723:Libraries/STM32F10x_StdPeriph_Driver/src/stm32f10x_adc.c **** }
 737              		.loc 1 723 0
 738 0004 7047     		bx	lr
 739              	.L52:
 740 0006 00BF     		.align	2
 741              	.L51:
 742 0008 4C240140 		.word	1073816652
 743              		.cfi_endproc
 744              	.LFE46:
 746              		.section	.text.ADC_AutoInjectedConvCmd,"ax",%progbits
 747              		.align	1
 748              		.global	ADC_AutoInjectedConvCmd
 749              		.thumb
 750              		.thumb_func
 752              	ADC_AutoInjectedConvCmd:
 753              	.LFB47:
 724:Libraries/STM32F10x_StdPeriph_Driver/src/stm32f10x_adc.c **** 
 725:Libraries/STM32F10x_StdPeriph_Driver/src/stm32f10x_adc.c **** /**
 726:Libraries/STM32F10x_StdPeriph_Driver/src/stm32f10x_adc.c ****   * @brief  Enables or disables the selected ADC automatic injected group
 727:Libraries/STM32F10x_StdPeriph_Driver/src/stm32f10x_adc.c ****   *   conversion after regular one.
 728:Libraries/STM32F10x_StdPeriph_Driver/src/stm32f10x_adc.c ****   * @param  ADCx: where x can be 1, 2 or 3 to select the ADC peripheral.
 729:Libraries/STM32F10x_StdPeriph_Driver/src/stm32f10x_adc.c ****   * @param  NewState: new state of the selected ADC auto injected conversion
 730:Libraries/STM32F10x_StdPeriph_Driver/src/stm32f10x_adc.c ****   *   This parameter can be: ENABLE or DISABLE.
 731:Libraries/STM32F10x_StdPeriph_Driver/src/stm32f10x_adc.c ****   * @retval None
 732:Libraries/STM32F10x_StdPeriph_Driver/src/stm32f10x_adc.c ****   */
 733:Libraries/STM32F10x_StdPeriph_Driver/src/stm32f10x_adc.c **** void ADC_AutoInjectedConvCmd(ADC_TypeDef* ADCx, FunctionalState NewState)
 734:Libraries/STM32F10x_StdPeriph_Driver/src/stm32f10x_adc.c **** {
 754              		.loc 1 734 0
 755              		.cfi_startproc
 756              		@ args = 0, pretend = 0, frame = 0
 757              		@ frame_needed = 0, uses_anonymous_args = 0
 758              		@ link register save eliminated.
 759              	.LVL90:
 735:Libraries/STM32F10x_StdPeriph_Driver/src/stm32f10x_adc.c ****   /* Check the parameters */
 736:Libraries/STM32F10x_StdPeriph_Driver/src/stm32f10x_adc.c ****   assert_param(IS_ADC_ALL_PERIPH(ADCx));
 737:Libraries/STM32F10x_StdPeriph_Driver/src/stm32f10x_adc.c ****   assert_param(IS_FUNCTIONAL_STATE(NewState));
 738:Libraries/STM32F10x_StdPeriph_Driver/src/stm32f10x_adc.c ****   if (NewState != DISABLE)
 739:Libraries/STM32F10x_StdPeriph_Driver/src/stm32f10x_adc.c ****   {
 740:Libraries/STM32F10x_StdPeriph_Driver/src/stm32f10x_adc.c ****     /* Enable the selected ADC automatic injected group conversion */
 741:Libraries/STM32F10x_StdPeriph_Driver/src/stm32f10x_adc.c ****     ADCx->CR1 |= CR1_JAUTO_Set;
 760              		.loc 1 741 0
 761 0000 4368     		ldr	r3, [r0, #4]
 738:Libraries/STM32F10x_StdPeriph_Driver/src/stm32f10x_adc.c ****   {
 762              		.loc 1 738 0
 763 0002 11B1     		cbz	r1, .L54
 764              		.loc 1 741 0
 765 0004 43F48063 		orr	r3, r3, #1024
 766 0008 01E0     		b	.L56
 767              	.L54:
 742:Libraries/STM32F10x_StdPeriph_Driver/src/stm32f10x_adc.c ****   }
 743:Libraries/STM32F10x_StdPeriph_Driver/src/stm32f10x_adc.c ****   else
 744:Libraries/STM32F10x_StdPeriph_Driver/src/stm32f10x_adc.c ****   {
 745:Libraries/STM32F10x_StdPeriph_Driver/src/stm32f10x_adc.c ****     /* Disable the selected ADC automatic injected group conversion */
 746:Libraries/STM32F10x_StdPeriph_Driver/src/stm32f10x_adc.c ****     ADCx->CR1 &= CR1_JAUTO_Reset;
 768              		.loc 1 746 0
 769 000a 23F48063 		bic	r3, r3, #1024
 770              	.L56:
 771 000e 4360     		str	r3, [r0, #4]
 772 0010 7047     		bx	lr
 773              		.cfi_endproc
 774              	.LFE47:
 776              		.section	.text.ADC_InjectedDiscModeCmd,"ax",%progbits
 777              		.align	1
 778              		.global	ADC_InjectedDiscModeCmd
 779              		.thumb
 780              		.thumb_func
 782              	ADC_InjectedDiscModeCmd:
 783              	.LFB48:
 747:Libraries/STM32F10x_StdPeriph_Driver/src/stm32f10x_adc.c ****   }
 748:Libraries/STM32F10x_StdPeriph_Driver/src/stm32f10x_adc.c **** }
 749:Libraries/STM32F10x_StdPeriph_Driver/src/stm32f10x_adc.c **** 
 750:Libraries/STM32F10x_StdPeriph_Driver/src/stm32f10x_adc.c **** /**
 751:Libraries/STM32F10x_StdPeriph_Driver/src/stm32f10x_adc.c ****   * @brief  Enables or disables the discontinuous mode for injected group
 752:Libraries/STM32F10x_StdPeriph_Driver/src/stm32f10x_adc.c ****   *   channel for the specified ADC
 753:Libraries/STM32F10x_StdPeriph_Driver/src/stm32f10x_adc.c ****   * @param  ADCx: where x can be 1, 2 or 3 to select the ADC peripheral.
 754:Libraries/STM32F10x_StdPeriph_Driver/src/stm32f10x_adc.c ****   * @param  NewState: new state of the selected ADC discontinuous mode
 755:Libraries/STM32F10x_StdPeriph_Driver/src/stm32f10x_adc.c ****   *   on injected group channel.
 756:Libraries/STM32F10x_StdPeriph_Driver/src/stm32f10x_adc.c ****   *   This parameter can be: ENABLE or DISABLE.
 757:Libraries/STM32F10x_StdPeriph_Driver/src/stm32f10x_adc.c ****   * @retval None
 758:Libraries/STM32F10x_StdPeriph_Driver/src/stm32f10x_adc.c ****   */
 759:Libraries/STM32F10x_StdPeriph_Driver/src/stm32f10x_adc.c **** void ADC_InjectedDiscModeCmd(ADC_TypeDef* ADCx, FunctionalState NewState)
 760:Libraries/STM32F10x_StdPeriph_Driver/src/stm32f10x_adc.c **** {
 784              		.loc 1 760 0
 785              		.cfi_startproc
 786              		@ args = 0, pretend = 0, frame = 0
 787              		@ frame_needed = 0, uses_anonymous_args = 0
 788              		@ link register save eliminated.
 789              	.LVL91:
 761:Libraries/STM32F10x_StdPeriph_Driver/src/stm32f10x_adc.c ****   /* Check the parameters */
 762:Libraries/STM32F10x_StdPeriph_Driver/src/stm32f10x_adc.c ****   assert_param(IS_ADC_ALL_PERIPH(ADCx));
 763:Libraries/STM32F10x_StdPeriph_Driver/src/stm32f10x_adc.c ****   assert_param(IS_FUNCTIONAL_STATE(NewState));
 764:Libraries/STM32F10x_StdPeriph_Driver/src/stm32f10x_adc.c ****   if (NewState != DISABLE)
 765:Libraries/STM32F10x_StdPeriph_Driver/src/stm32f10x_adc.c ****   {
 766:Libraries/STM32F10x_StdPeriph_Driver/src/stm32f10x_adc.c ****     /* Enable the selected ADC injected discontinuous mode */
 767:Libraries/STM32F10x_StdPeriph_Driver/src/stm32f10x_adc.c ****     ADCx->CR1 |= CR1_JDISCEN_Set;
 790              		.loc 1 767 0
 791 0000 4368     		ldr	r3, [r0, #4]
 764:Libraries/STM32F10x_StdPeriph_Driver/src/stm32f10x_adc.c ****   {
 792              		.loc 1 764 0
 793 0002 11B1     		cbz	r1, .L58
 794              		.loc 1 767 0
 795 0004 43F48053 		orr	r3, r3, #4096
 796 0008 01E0     		b	.L60
 797              	.L58:
 768:Libraries/STM32F10x_StdPeriph_Driver/src/stm32f10x_adc.c ****   }
 769:Libraries/STM32F10x_StdPeriph_Driver/src/stm32f10x_adc.c ****   else
 770:Libraries/STM32F10x_StdPeriph_Driver/src/stm32f10x_adc.c ****   {
 771:Libraries/STM32F10x_StdPeriph_Driver/src/stm32f10x_adc.c ****     /* Disable the selected ADC injected discontinuous mode */
 772:Libraries/STM32F10x_StdPeriph_Driver/src/stm32f10x_adc.c ****     ADCx->CR1 &= CR1_JDISCEN_Reset;
 798              		.loc 1 772 0
 799 000a 23F48053 		bic	r3, r3, #4096
 800              	.L60:
 801 000e 4360     		str	r3, [r0, #4]
 802 0010 7047     		bx	lr
 803              		.cfi_endproc
 804              	.LFE48:
 806              		.section	.text.ADC_ExternalTrigInjectedConvConfig,"ax",%progbits
 807              		.align	1
 808              		.global	ADC_ExternalTrigInjectedConvConfig
 809              		.thumb
 810              		.thumb_func
 812              	ADC_ExternalTrigInjectedConvConfig:
 813              	.LFB49:
 773:Libraries/STM32F10x_StdPeriph_Driver/src/stm32f10x_adc.c ****   }
 774:Libraries/STM32F10x_StdPeriph_Driver/src/stm32f10x_adc.c **** }
 775:Libraries/STM32F10x_StdPeriph_Driver/src/stm32f10x_adc.c **** 
 776:Libraries/STM32F10x_StdPeriph_Driver/src/stm32f10x_adc.c **** /**
 777:Libraries/STM32F10x_StdPeriph_Driver/src/stm32f10x_adc.c ****   * @brief  Configures the ADCx external trigger for injected channels conversion.
 778:Libraries/STM32F10x_StdPeriph_Driver/src/stm32f10x_adc.c ****   * @param  ADCx: where x can be 1, 2 or 3 to select the ADC peripheral.
 779:Libraries/STM32F10x_StdPeriph_Driver/src/stm32f10x_adc.c ****   * @param  ADC_ExternalTrigInjecConv: specifies the ADC trigger to start injected conversion. 
 780:Libraries/STM32F10x_StdPeriph_Driver/src/stm32f10x_adc.c ****   *   This parameter can be one of the following values:
 781:Libraries/STM32F10x_StdPeriph_Driver/src/stm32f10x_adc.c ****   *     @arg ADC_ExternalTrigInjecConv_T1_TRGO: Timer1 TRGO event selected (for ADC1, ADC2 and ADC3
 782:Libraries/STM32F10x_StdPeriph_Driver/src/stm32f10x_adc.c ****   *     @arg ADC_ExternalTrigInjecConv_T1_CC4: Timer1 capture compare4 selected (for ADC1, ADC2 and
 783:Libraries/STM32F10x_StdPeriph_Driver/src/stm32f10x_adc.c ****   *     @arg ADC_ExternalTrigInjecConv_T2_TRGO: Timer2 TRGO event selected (for ADC1 and ADC2)
 784:Libraries/STM32F10x_StdPeriph_Driver/src/stm32f10x_adc.c ****   *     @arg ADC_ExternalTrigInjecConv_T2_CC1: Timer2 capture compare1 selected (for ADC1 and ADC2)
 785:Libraries/STM32F10x_StdPeriph_Driver/src/stm32f10x_adc.c ****   *     @arg ADC_ExternalTrigInjecConv_T3_CC4: Timer3 capture compare4 selected (for ADC1 and ADC2)
 786:Libraries/STM32F10x_StdPeriph_Driver/src/stm32f10x_adc.c ****   *     @arg ADC_ExternalTrigInjecConv_T4_TRGO: Timer4 TRGO event selected (for ADC1 and ADC2)
 787:Libraries/STM32F10x_StdPeriph_Driver/src/stm32f10x_adc.c ****   *     @arg ADC_ExternalTrigInjecConv_Ext_IT15_TIM8_CC4: External interrupt line 15 or Timer8
 788:Libraries/STM32F10x_StdPeriph_Driver/src/stm32f10x_adc.c ****   *                                                       capture compare4 event selected (for ADC1
 789:Libraries/STM32F10x_StdPeriph_Driver/src/stm32f10x_adc.c ****   *     @arg ADC_ExternalTrigInjecConv_T4_CC3: Timer4 capture compare3 selected (for ADC3 only)
 790:Libraries/STM32F10x_StdPeriph_Driver/src/stm32f10x_adc.c ****   *     @arg ADC_ExternalTrigInjecConv_T8_CC2: Timer8 capture compare2 selected (for ADC3 only)    
 791:Libraries/STM32F10x_StdPeriph_Driver/src/stm32f10x_adc.c ****   *     @arg ADC_ExternalTrigInjecConv_T8_CC4: Timer8 capture compare4 selected (for ADC3 only)
 792:Libraries/STM32F10x_StdPeriph_Driver/src/stm32f10x_adc.c ****   *     @arg ADC_ExternalTrigInjecConv_T5_TRGO: Timer5 TRGO event selected (for ADC3 only)         
 793:Libraries/STM32F10x_StdPeriph_Driver/src/stm32f10x_adc.c ****   *     @arg ADC_ExternalTrigInjecConv_T5_CC4: Timer5 capture compare4 selected (for ADC3 only)    
 794:Libraries/STM32F10x_StdPeriph_Driver/src/stm32f10x_adc.c ****   *     @arg ADC_ExternalTrigInjecConv_None: Injected conversion started by software and not
 795:Libraries/STM32F10x_StdPeriph_Driver/src/stm32f10x_adc.c ****   *                                          by external trigger (for ADC1, ADC2 and ADC3)
 796:Libraries/STM32F10x_StdPeriph_Driver/src/stm32f10x_adc.c ****   * @retval None
 797:Libraries/STM32F10x_StdPeriph_Driver/src/stm32f10x_adc.c ****   */
 798:Libraries/STM32F10x_StdPeriph_Driver/src/stm32f10x_adc.c **** void ADC_ExternalTrigInjectedConvConfig(ADC_TypeDef* ADCx, uint32_t ADC_ExternalTrigInjecConv)
 799:Libraries/STM32F10x_StdPeriph_Driver/src/stm32f10x_adc.c **** {
 814              		.loc 1 799 0
 815              		.cfi_startproc
 816              		@ args = 0, pretend = 0, frame = 0
 817              		@ frame_needed = 0, uses_anonymous_args = 0
 818              		@ link register save eliminated.
 819              	.LVL92:
 800:Libraries/STM32F10x_StdPeriph_Driver/src/stm32f10x_adc.c ****   uint32_t tmpreg = 0;
 801:Libraries/STM32F10x_StdPeriph_Driver/src/stm32f10x_adc.c ****   /* Check the parameters */
 802:Libraries/STM32F10x_StdPeriph_Driver/src/stm32f10x_adc.c ****   assert_param(IS_ADC_ALL_PERIPH(ADCx));
 803:Libraries/STM32F10x_StdPeriph_Driver/src/stm32f10x_adc.c ****   assert_param(IS_ADC_EXT_INJEC_TRIG(ADC_ExternalTrigInjecConv));
 804:Libraries/STM32F10x_StdPeriph_Driver/src/stm32f10x_adc.c ****   /* Get the old register value */
 805:Libraries/STM32F10x_StdPeriph_Driver/src/stm32f10x_adc.c ****   tmpreg = ADCx->CR2;
 820              		.loc 1 805 0
 821 0000 8368     		ldr	r3, [r0, #8]
 822              	.LVL93:
 806:Libraries/STM32F10x_StdPeriph_Driver/src/stm32f10x_adc.c ****   /* Clear the old external event selection for injected group */
 807:Libraries/STM32F10x_StdPeriph_Driver/src/stm32f10x_adc.c ****   tmpreg &= CR2_JEXTSEL_Reset;
 823              		.loc 1 807 0
 824 0002 23F4E043 		bic	r3, r3, #28672
 825              	.LVL94:
 808:Libraries/STM32F10x_StdPeriph_Driver/src/stm32f10x_adc.c ****   /* Set the external event selection for injected group */
 809:Libraries/STM32F10x_StdPeriph_Driver/src/stm32f10x_adc.c ****   tmpreg |= ADC_ExternalTrigInjecConv;
 826              		.loc 1 809 0
 827 0006 1943     		orrs	r1, r1, r3
 828              	.LVL95:
 810:Libraries/STM32F10x_StdPeriph_Driver/src/stm32f10x_adc.c ****   /* Store the new register value */
 811:Libraries/STM32F10x_StdPeriph_Driver/src/stm32f10x_adc.c ****   ADCx->CR2 = tmpreg;
 829              		.loc 1 811 0
 830 0008 8160     		str	r1, [r0, #8]
 831 000a 7047     		bx	lr
 832              		.cfi_endproc
 833              	.LFE49:
 835              		.section	.text.ADC_ExternalTrigInjectedConvCmd,"ax",%progbits
 836              		.align	1
 837              		.global	ADC_ExternalTrigInjectedConvCmd
 838              		.thumb
 839              		.thumb_func
 841              	ADC_ExternalTrigInjectedConvCmd:
 842              	.LFB50:
 812:Libraries/STM32F10x_StdPeriph_Driver/src/stm32f10x_adc.c **** }
 813:Libraries/STM32F10x_StdPeriph_Driver/src/stm32f10x_adc.c **** 
 814:Libraries/STM32F10x_StdPeriph_Driver/src/stm32f10x_adc.c **** /**
 815:Libraries/STM32F10x_StdPeriph_Driver/src/stm32f10x_adc.c ****   * @brief  Enables or disables the ADCx injected channels conversion through
 816:Libraries/STM32F10x_StdPeriph_Driver/src/stm32f10x_adc.c ****   *   external trigger
 817:Libraries/STM32F10x_StdPeriph_Driver/src/stm32f10x_adc.c ****   * @param  ADCx: where x can be 1, 2 or 3 to select the ADC peripheral.
 818:Libraries/STM32F10x_StdPeriph_Driver/src/stm32f10x_adc.c ****   * @param  NewState: new state of the selected ADC external trigger start of
 819:Libraries/STM32F10x_StdPeriph_Driver/src/stm32f10x_adc.c ****   *   injected conversion.
 820:Libraries/STM32F10x_StdPeriph_Driver/src/stm32f10x_adc.c ****   *   This parameter can be: ENABLE or DISABLE.
 821:Libraries/STM32F10x_StdPeriph_Driver/src/stm32f10x_adc.c ****   * @retval None
 822:Libraries/STM32F10x_StdPeriph_Driver/src/stm32f10x_adc.c ****   */
 823:Libraries/STM32F10x_StdPeriph_Driver/src/stm32f10x_adc.c **** void ADC_ExternalTrigInjectedConvCmd(ADC_TypeDef* ADCx, FunctionalState NewState)
 824:Libraries/STM32F10x_StdPeriph_Driver/src/stm32f10x_adc.c **** {
 843              		.loc 1 824 0
 844              		.cfi_startproc
 845              		@ args = 0, pretend = 0, frame = 0
 846              		@ frame_needed = 0, uses_anonymous_args = 0
 847              		@ link register save eliminated.
 848              	.LVL96:
 825:Libraries/STM32F10x_StdPeriph_Driver/src/stm32f10x_adc.c ****   /* Check the parameters */
 826:Libraries/STM32F10x_StdPeriph_Driver/src/stm32f10x_adc.c ****   assert_param(IS_ADC_ALL_PERIPH(ADCx));
 827:Libraries/STM32F10x_StdPeriph_Driver/src/stm32f10x_adc.c ****   assert_param(IS_FUNCTIONAL_STATE(NewState));
 828:Libraries/STM32F10x_StdPeriph_Driver/src/stm32f10x_adc.c ****   if (NewState != DISABLE)
 829:Libraries/STM32F10x_StdPeriph_Driver/src/stm32f10x_adc.c ****   {
 830:Libraries/STM32F10x_StdPeriph_Driver/src/stm32f10x_adc.c ****     /* Enable the selected ADC external event selection for injected group */
 831:Libraries/STM32F10x_StdPeriph_Driver/src/stm32f10x_adc.c ****     ADCx->CR2 |= CR2_JEXTTRIG_Set;
 849              		.loc 1 831 0
 850 0000 8368     		ldr	r3, [r0, #8]
 828:Libraries/STM32F10x_StdPeriph_Driver/src/stm32f10x_adc.c ****   {
 851              		.loc 1 828 0
 852 0002 11B1     		cbz	r1, .L63
 853              		.loc 1 831 0
 854 0004 43F40043 		orr	r3, r3, #32768
 855 0008 01E0     		b	.L65
 856              	.L63:
 832:Libraries/STM32F10x_StdPeriph_Driver/src/stm32f10x_adc.c ****   }
 833:Libraries/STM32F10x_StdPeriph_Driver/src/stm32f10x_adc.c ****   else
 834:Libraries/STM32F10x_StdPeriph_Driver/src/stm32f10x_adc.c ****   {
 835:Libraries/STM32F10x_StdPeriph_Driver/src/stm32f10x_adc.c ****     /* Disable the selected ADC external event selection for injected group */
 836:Libraries/STM32F10x_StdPeriph_Driver/src/stm32f10x_adc.c ****     ADCx->CR2 &= CR2_JEXTTRIG_Reset;
 857              		.loc 1 836 0
 858 000a 23F40043 		bic	r3, r3, #32768
 859              	.L65:
 860 000e 8360     		str	r3, [r0, #8]
 861 0010 7047     		bx	lr
 862              		.cfi_endproc
 863              	.LFE50:
 865              		.section	.text.ADC_SoftwareStartInjectedConvCmd,"ax",%progbits
 866              		.align	1
 867              		.global	ADC_SoftwareStartInjectedConvCmd
 868              		.thumb
 869              		.thumb_func
 871              	ADC_SoftwareStartInjectedConvCmd:
 872              	.LFB51:
 837:Libraries/STM32F10x_StdPeriph_Driver/src/stm32f10x_adc.c ****   }
 838:Libraries/STM32F10x_StdPeriph_Driver/src/stm32f10x_adc.c **** }
 839:Libraries/STM32F10x_StdPeriph_Driver/src/stm32f10x_adc.c **** 
 840:Libraries/STM32F10x_StdPeriph_Driver/src/stm32f10x_adc.c **** /**
 841:Libraries/STM32F10x_StdPeriph_Driver/src/stm32f10x_adc.c ****   * @brief  Enables or disables the selected ADC start of the injected 
 842:Libraries/STM32F10x_StdPeriph_Driver/src/stm32f10x_adc.c ****   *   channels conversion.
 843:Libraries/STM32F10x_StdPeriph_Driver/src/stm32f10x_adc.c ****   * @param  ADCx: where x can be 1, 2 or 3 to select the ADC peripheral.
 844:Libraries/STM32F10x_StdPeriph_Driver/src/stm32f10x_adc.c ****   * @param  NewState: new state of the selected ADC software start injected conversion.
 845:Libraries/STM32F10x_StdPeriph_Driver/src/stm32f10x_adc.c ****   *   This parameter can be: ENABLE or DISABLE.
 846:Libraries/STM32F10x_StdPeriph_Driver/src/stm32f10x_adc.c ****   * @retval None
 847:Libraries/STM32F10x_StdPeriph_Driver/src/stm32f10x_adc.c ****   */
 848:Libraries/STM32F10x_StdPeriph_Driver/src/stm32f10x_adc.c **** void ADC_SoftwareStartInjectedConvCmd(ADC_TypeDef* ADCx, FunctionalState NewState)
 849:Libraries/STM32F10x_StdPeriph_Driver/src/stm32f10x_adc.c **** {
 873              		.loc 1 849 0
 874              		.cfi_startproc
 875              		@ args = 0, pretend = 0, frame = 0
 876              		@ frame_needed = 0, uses_anonymous_args = 0
 877              		@ link register save eliminated.
 878              	.LVL97:
 850:Libraries/STM32F10x_StdPeriph_Driver/src/stm32f10x_adc.c ****   /* Check the parameters */
 851:Libraries/STM32F10x_StdPeriph_Driver/src/stm32f10x_adc.c ****   assert_param(IS_ADC_ALL_PERIPH(ADCx));
 852:Libraries/STM32F10x_StdPeriph_Driver/src/stm32f10x_adc.c ****   assert_param(IS_FUNCTIONAL_STATE(NewState));
 853:Libraries/STM32F10x_StdPeriph_Driver/src/stm32f10x_adc.c ****   if (NewState != DISABLE)
 854:Libraries/STM32F10x_StdPeriph_Driver/src/stm32f10x_adc.c ****   {
 855:Libraries/STM32F10x_StdPeriph_Driver/src/stm32f10x_adc.c ****     /* Enable the selected ADC conversion for injected group on external event and start the select
 856:Libraries/STM32F10x_StdPeriph_Driver/src/stm32f10x_adc.c ****        ADC injected conversion */
 857:Libraries/STM32F10x_StdPeriph_Driver/src/stm32f10x_adc.c ****     ADCx->CR2 |= CR2_JEXTTRIG_JSWSTART_Set;
 879              		.loc 1 857 0
 880 0000 8368     		ldr	r3, [r0, #8]
 853:Libraries/STM32F10x_StdPeriph_Driver/src/stm32f10x_adc.c ****   {
 881              		.loc 1 853 0
 882 0002 11B1     		cbz	r1, .L67
 883              		.loc 1 857 0
 884 0004 43F40213 		orr	r3, r3, #2129920
 885 0008 01E0     		b	.L69
 886              	.L67:
 858:Libraries/STM32F10x_StdPeriph_Driver/src/stm32f10x_adc.c ****   }
 859:Libraries/STM32F10x_StdPeriph_Driver/src/stm32f10x_adc.c ****   else
 860:Libraries/STM32F10x_StdPeriph_Driver/src/stm32f10x_adc.c ****   {
 861:Libraries/STM32F10x_StdPeriph_Driver/src/stm32f10x_adc.c ****     /* Disable the selected ADC conversion on external event for injected group and stop the select
 862:Libraries/STM32F10x_StdPeriph_Driver/src/stm32f10x_adc.c ****        ADC injected conversion */
 863:Libraries/STM32F10x_StdPeriph_Driver/src/stm32f10x_adc.c ****     ADCx->CR2 &= CR2_JEXTTRIG_JSWSTART_Reset;
 887              		.loc 1 863 0
 888 000a 23F40213 		bic	r3, r3, #2129920
 889              	.L69:
 890 000e 8360     		str	r3, [r0, #8]
 891 0010 7047     		bx	lr
 892              		.cfi_endproc
 893              	.LFE51:
 895              		.section	.text.ADC_GetSoftwareStartInjectedConvCmdStatus,"ax",%progbits
 896              		.align	1
 897              		.global	ADC_GetSoftwareStartInjectedConvCmdStatus
 898              		.thumb
 899              		.thumb_func
 901              	ADC_GetSoftwareStartInjectedConvCmdStatus:
 902              	.LFB52:
 864:Libraries/STM32F10x_StdPeriph_Driver/src/stm32f10x_adc.c ****   }
 865:Libraries/STM32F10x_StdPeriph_Driver/src/stm32f10x_adc.c **** }
 866:Libraries/STM32F10x_StdPeriph_Driver/src/stm32f10x_adc.c **** 
 867:Libraries/STM32F10x_StdPeriph_Driver/src/stm32f10x_adc.c **** /**
 868:Libraries/STM32F10x_StdPeriph_Driver/src/stm32f10x_adc.c ****   * @brief  Gets the selected ADC Software start injected conversion Status.
 869:Libraries/STM32F10x_StdPeriph_Driver/src/stm32f10x_adc.c ****   * @param  ADCx: where x can be 1, 2 or 3 to select the ADC peripheral.
 870:Libraries/STM32F10x_StdPeriph_Driver/src/stm32f10x_adc.c ****   * @retval The new state of ADC software start injected conversion (SET or RESET).
 871:Libraries/STM32F10x_StdPeriph_Driver/src/stm32f10x_adc.c ****   */
 872:Libraries/STM32F10x_StdPeriph_Driver/src/stm32f10x_adc.c **** FlagStatus ADC_GetSoftwareStartInjectedConvCmdStatus(ADC_TypeDef* ADCx)
 873:Libraries/STM32F10x_StdPeriph_Driver/src/stm32f10x_adc.c **** {
 903              		.loc 1 873 0
 904              		.cfi_startproc
 905              		@ args = 0, pretend = 0, frame = 0
 906              		@ frame_needed = 0, uses_anonymous_args = 0
 907              		@ link register save eliminated.
 908              	.LVL98:
 874:Libraries/STM32F10x_StdPeriph_Driver/src/stm32f10x_adc.c ****   FlagStatus bitstatus = RESET;
 875:Libraries/STM32F10x_StdPeriph_Driver/src/stm32f10x_adc.c ****   /* Check the parameters */
 876:Libraries/STM32F10x_StdPeriph_Driver/src/stm32f10x_adc.c ****   assert_param(IS_ADC_ALL_PERIPH(ADCx));
 877:Libraries/STM32F10x_StdPeriph_Driver/src/stm32f10x_adc.c ****   /* Check the status of JSWSTART bit */
 878:Libraries/STM32F10x_StdPeriph_Driver/src/stm32f10x_adc.c ****   if ((ADCx->CR2 & CR2_JSWSTART_Set) != (uint32_t)RESET)
 909              		.loc 1 878 0
 910 0000 8068     		ldr	r0, [r0, #8]
 911              	.LVL99:
 879:Libraries/STM32F10x_StdPeriph_Driver/src/stm32f10x_adc.c ****   {
 880:Libraries/STM32F10x_StdPeriph_Driver/src/stm32f10x_adc.c ****     /* JSWSTART bit is set */
 881:Libraries/STM32F10x_StdPeriph_Driver/src/stm32f10x_adc.c ****     bitstatus = SET;
 882:Libraries/STM32F10x_StdPeriph_Driver/src/stm32f10x_adc.c ****   }
 883:Libraries/STM32F10x_StdPeriph_Driver/src/stm32f10x_adc.c ****   else
 884:Libraries/STM32F10x_StdPeriph_Driver/src/stm32f10x_adc.c ****   {
 885:Libraries/STM32F10x_StdPeriph_Driver/src/stm32f10x_adc.c ****     /* JSWSTART bit is reset */
 886:Libraries/STM32F10x_StdPeriph_Driver/src/stm32f10x_adc.c ****     bitstatus = RESET;
 887:Libraries/STM32F10x_StdPeriph_Driver/src/stm32f10x_adc.c ****   }
 888:Libraries/STM32F10x_StdPeriph_Driver/src/stm32f10x_adc.c ****   /* Return the JSWSTART bit status */
 889:Libraries/STM32F10x_StdPeriph_Driver/src/stm32f10x_adc.c ****   return  bitstatus;
 890:Libraries/STM32F10x_StdPeriph_Driver/src/stm32f10x_adc.c **** }
 912              		.loc 1 890 0
 913 0002 C0F34050 		ubfx	r0, r0, #21, #1
 914              	.LVL100:
 915 0006 7047     		bx	lr
 916              		.cfi_endproc
 917              	.LFE52:
 919              		.section	.text.ADC_InjectedChannelConfig,"ax",%progbits
 920              		.align	1
 921              		.global	ADC_InjectedChannelConfig
 922              		.thumb
 923              		.thumb_func
 925              	ADC_InjectedChannelConfig:
 926              	.LFB53:
 891:Libraries/STM32F10x_StdPeriph_Driver/src/stm32f10x_adc.c **** 
 892:Libraries/STM32F10x_StdPeriph_Driver/src/stm32f10x_adc.c **** /**
 893:Libraries/STM32F10x_StdPeriph_Driver/src/stm32f10x_adc.c ****   * @brief  Configures for the selected ADC injected channel its corresponding
 894:Libraries/STM32F10x_StdPeriph_Driver/src/stm32f10x_adc.c ****   *   rank in the sequencer and its sample time.
 895:Libraries/STM32F10x_StdPeriph_Driver/src/stm32f10x_adc.c ****   * @param  ADCx: where x can be 1, 2 or 3 to select the ADC peripheral.
 896:Libraries/STM32F10x_StdPeriph_Driver/src/stm32f10x_adc.c ****   * @param  ADC_Channel: the ADC channel to configure. 
 897:Libraries/STM32F10x_StdPeriph_Driver/src/stm32f10x_adc.c ****   *   This parameter can be one of the following values:
 898:Libraries/STM32F10x_StdPeriph_Driver/src/stm32f10x_adc.c ****   *     @arg ADC_Channel_0: ADC Channel0 selected
 899:Libraries/STM32F10x_StdPeriph_Driver/src/stm32f10x_adc.c ****   *     @arg ADC_Channel_1: ADC Channel1 selected
 900:Libraries/STM32F10x_StdPeriph_Driver/src/stm32f10x_adc.c ****   *     @arg ADC_Channel_2: ADC Channel2 selected
 901:Libraries/STM32F10x_StdPeriph_Driver/src/stm32f10x_adc.c ****   *     @arg ADC_Channel_3: ADC Channel3 selected
 902:Libraries/STM32F10x_StdPeriph_Driver/src/stm32f10x_adc.c ****   *     @arg ADC_Channel_4: ADC Channel4 selected
 903:Libraries/STM32F10x_StdPeriph_Driver/src/stm32f10x_adc.c ****   *     @arg ADC_Channel_5: ADC Channel5 selected
 904:Libraries/STM32F10x_StdPeriph_Driver/src/stm32f10x_adc.c ****   *     @arg ADC_Channel_6: ADC Channel6 selected
 905:Libraries/STM32F10x_StdPeriph_Driver/src/stm32f10x_adc.c ****   *     @arg ADC_Channel_7: ADC Channel7 selected
 906:Libraries/STM32F10x_StdPeriph_Driver/src/stm32f10x_adc.c ****   *     @arg ADC_Channel_8: ADC Channel8 selected
 907:Libraries/STM32F10x_StdPeriph_Driver/src/stm32f10x_adc.c ****   *     @arg ADC_Channel_9: ADC Channel9 selected
 908:Libraries/STM32F10x_StdPeriph_Driver/src/stm32f10x_adc.c ****   *     @arg ADC_Channel_10: ADC Channel10 selected
 909:Libraries/STM32F10x_StdPeriph_Driver/src/stm32f10x_adc.c ****   *     @arg ADC_Channel_11: ADC Channel11 selected
 910:Libraries/STM32F10x_StdPeriph_Driver/src/stm32f10x_adc.c ****   *     @arg ADC_Channel_12: ADC Channel12 selected
 911:Libraries/STM32F10x_StdPeriph_Driver/src/stm32f10x_adc.c ****   *     @arg ADC_Channel_13: ADC Channel13 selected
 912:Libraries/STM32F10x_StdPeriph_Driver/src/stm32f10x_adc.c ****   *     @arg ADC_Channel_14: ADC Channel14 selected
 913:Libraries/STM32F10x_StdPeriph_Driver/src/stm32f10x_adc.c ****   *     @arg ADC_Channel_15: ADC Channel15 selected
 914:Libraries/STM32F10x_StdPeriph_Driver/src/stm32f10x_adc.c ****   *     @arg ADC_Channel_16: ADC Channel16 selected
 915:Libraries/STM32F10x_StdPeriph_Driver/src/stm32f10x_adc.c ****   *     @arg ADC_Channel_17: ADC Channel17 selected
 916:Libraries/STM32F10x_StdPeriph_Driver/src/stm32f10x_adc.c ****   * @param  Rank: The rank in the injected group sequencer. This parameter must be between 1 and 4.
 917:Libraries/STM32F10x_StdPeriph_Driver/src/stm32f10x_adc.c ****   * @param  ADC_SampleTime: The sample time value to be set for the selected channel. 
 918:Libraries/STM32F10x_StdPeriph_Driver/src/stm32f10x_adc.c ****   *   This parameter can be one of the following values:
 919:Libraries/STM32F10x_StdPeriph_Driver/src/stm32f10x_adc.c ****   *     @arg ADC_SampleTime_1Cycles5: Sample time equal to 1.5 cycles
 920:Libraries/STM32F10x_StdPeriph_Driver/src/stm32f10x_adc.c ****   *     @arg ADC_SampleTime_7Cycles5: Sample time equal to 7.5 cycles
 921:Libraries/STM32F10x_StdPeriph_Driver/src/stm32f10x_adc.c ****   *     @arg ADC_SampleTime_13Cycles5: Sample time equal to 13.5 cycles
 922:Libraries/STM32F10x_StdPeriph_Driver/src/stm32f10x_adc.c ****   *     @arg ADC_SampleTime_28Cycles5: Sample time equal to 28.5 cycles	
 923:Libraries/STM32F10x_StdPeriph_Driver/src/stm32f10x_adc.c ****   *     @arg ADC_SampleTime_41Cycles5: Sample time equal to 41.5 cycles	
 924:Libraries/STM32F10x_StdPeriph_Driver/src/stm32f10x_adc.c ****   *     @arg ADC_SampleTime_55Cycles5: Sample time equal to 55.5 cycles	
 925:Libraries/STM32F10x_StdPeriph_Driver/src/stm32f10x_adc.c ****   *     @arg ADC_SampleTime_71Cycles5: Sample time equal to 71.5 cycles	
 926:Libraries/STM32F10x_StdPeriph_Driver/src/stm32f10x_adc.c ****   *     @arg ADC_SampleTime_239Cycles5: Sample time equal to 239.5 cycles	
 927:Libraries/STM32F10x_StdPeriph_Driver/src/stm32f10x_adc.c ****   * @retval None
 928:Libraries/STM32F10x_StdPeriph_Driver/src/stm32f10x_adc.c ****   */
 929:Libraries/STM32F10x_StdPeriph_Driver/src/stm32f10x_adc.c **** void ADC_InjectedChannelConfig(ADC_TypeDef* ADCx, uint8_t ADC_Channel, uint8_t Rank, uint8_t ADC_Sa
 930:Libraries/STM32F10x_StdPeriph_Driver/src/stm32f10x_adc.c **** {
 927              		.loc 1 930 0
 928              		.cfi_startproc
 929              		@ args = 0, pretend = 0, frame = 0
 930              		@ frame_needed = 0, uses_anonymous_args = 0
 931              	.LVL101:
 931:Libraries/STM32F10x_StdPeriph_Driver/src/stm32f10x_adc.c ****   uint32_t tmpreg1 = 0, tmpreg2 = 0, tmpreg3 = 0;
 932:Libraries/STM32F10x_StdPeriph_Driver/src/stm32f10x_adc.c ****   /* Check the parameters */
 933:Libraries/STM32F10x_StdPeriph_Driver/src/stm32f10x_adc.c ****   assert_param(IS_ADC_ALL_PERIPH(ADCx));
 934:Libraries/STM32F10x_StdPeriph_Driver/src/stm32f10x_adc.c ****   assert_param(IS_ADC_CHANNEL(ADC_Channel));
 935:Libraries/STM32F10x_StdPeriph_Driver/src/stm32f10x_adc.c ****   assert_param(IS_ADC_INJECTED_RANK(Rank));
 936:Libraries/STM32F10x_StdPeriph_Driver/src/stm32f10x_adc.c ****   assert_param(IS_ADC_SAMPLE_TIME(ADC_SampleTime));
 937:Libraries/STM32F10x_StdPeriph_Driver/src/stm32f10x_adc.c ****   /* if ADC_Channel_10 ... ADC_Channel_17 is selected */
 938:Libraries/STM32F10x_StdPeriph_Driver/src/stm32f10x_adc.c ****   if (ADC_Channel > ADC_Channel_9)
 932              		.loc 1 938 0
 933 0000 0929     		cmp	r1, #9
 930:Libraries/STM32F10x_StdPeriph_Driver/src/stm32f10x_adc.c ****   uint32_t tmpreg1 = 0, tmpreg2 = 0, tmpreg3 = 0;
 934              		.loc 1 930 0
 935 0002 70B5     		push	{r4, r5, r6, lr}
 936              		.cfi_def_cfa_offset 16
 937              		.cfi_offset 4, -16
 938              		.cfi_offset 5, -12
 939              		.cfi_offset 6, -8
 940              		.cfi_offset 14, -4
 941              		.loc 1 938 0
 942 0004 0CD9     		bls	.L72
 939:Libraries/STM32F10x_StdPeriph_Driver/src/stm32f10x_adc.c ****   {
 940:Libraries/STM32F10x_StdPeriph_Driver/src/stm32f10x_adc.c ****     /* Get the old register value */
 941:Libraries/STM32F10x_StdPeriph_Driver/src/stm32f10x_adc.c ****     tmpreg1 = ADCx->SMPR1;
 942:Libraries/STM32F10x_StdPeriph_Driver/src/stm32f10x_adc.c ****     /* Calculate the mask to clear */
 943:Libraries/STM32F10x_StdPeriph_Driver/src/stm32f10x_adc.c ****     tmpreg2 = SMPR1_SMP_Set << (3*(ADC_Channel - 10));
 943              		.loc 1 943 0
 944 0006 A1F10A04 		sub	r4, r1, #10
 941:Libraries/STM32F10x_StdPeriph_Driver/src/stm32f10x_adc.c ****     /* Calculate the mask to clear */
 945              		.loc 1 941 0
 946 000a C668     		ldr	r6, [r0, #12]
 947              	.LVL102:
 948              		.loc 1 943 0
 949 000c 04EB4404 		add	r4, r4, r4, lsl #1
 950              	.LVL103:
 951 0010 0725     		movs	r5, #7
 952 0012 A540     		lsls	r5, r5, r4
 953              	.LVL104:
 944:Libraries/STM32F10x_StdPeriph_Driver/src/stm32f10x_adc.c ****     /* Clear the old channel sample time */
 945:Libraries/STM32F10x_StdPeriph_Driver/src/stm32f10x_adc.c ****     tmpreg1 &= ~tmpreg2;
 954              		.loc 1 945 0
 955 0014 26EA0505 		bic	r5, r6, r5
 956              	.LVL105:
 946:Libraries/STM32F10x_StdPeriph_Driver/src/stm32f10x_adc.c ****     /* Calculate the mask to set */
 947:Libraries/STM32F10x_StdPeriph_Driver/src/stm32f10x_adc.c ****     tmpreg2 = (uint32_t)ADC_SampleTime << (3*(ADC_Channel - 10));
 957              		.loc 1 947 0
 958 0018 A340     		lsls	r3, r3, r4
 959              	.LVL106:
 948:Libraries/STM32F10x_StdPeriph_Driver/src/stm32f10x_adc.c ****     /* Set the new channel sample time */
 949:Libraries/STM32F10x_StdPeriph_Driver/src/stm32f10x_adc.c ****     tmpreg1 |= tmpreg2;
 960              		.loc 1 949 0
 961 001a 2B43     		orrs	r3, r3, r5
 962              	.LVL107:
 950:Libraries/STM32F10x_StdPeriph_Driver/src/stm32f10x_adc.c ****     /* Store the new register value */
 951:Libraries/STM32F10x_StdPeriph_Driver/src/stm32f10x_adc.c ****     ADCx->SMPR1 = tmpreg1;
 963              		.loc 1 951 0
 964 001c C360     		str	r3, [r0, #12]
 965 001e 09E0     		b	.L73
 966              	.LVL108:
 967              	.L72:
 952:Libraries/STM32F10x_StdPeriph_Driver/src/stm32f10x_adc.c ****   }
 953:Libraries/STM32F10x_StdPeriph_Driver/src/stm32f10x_adc.c ****   else /* ADC_Channel include in ADC_Channel_[0..9] */
 954:Libraries/STM32F10x_StdPeriph_Driver/src/stm32f10x_adc.c ****   {
 955:Libraries/STM32F10x_StdPeriph_Driver/src/stm32f10x_adc.c ****     /* Get the old register value */
 956:Libraries/STM32F10x_StdPeriph_Driver/src/stm32f10x_adc.c ****     tmpreg1 = ADCx->SMPR2;
 968              		.loc 1 956 0
 969 0020 0569     		ldr	r5, [r0, #16]
 970              	.LVL109:
 957:Libraries/STM32F10x_StdPeriph_Driver/src/stm32f10x_adc.c ****     /* Calculate the mask to clear */
 958:Libraries/STM32F10x_StdPeriph_Driver/src/stm32f10x_adc.c ****     tmpreg2 = SMPR2_SMP_Set << (3 * ADC_Channel);
 971              		.loc 1 958 0
 972 0022 01EB4106 		add	r6, r1, r1, lsl #1
 973              	.LVL110:
 974 0026 0724     		movs	r4, #7
 975 0028 B440     		lsls	r4, r4, r6
 976              	.LVL111:
 959:Libraries/STM32F10x_StdPeriph_Driver/src/stm32f10x_adc.c ****     /* Clear the old channel sample time */
 960:Libraries/STM32F10x_StdPeriph_Driver/src/stm32f10x_adc.c ****     tmpreg1 &= ~tmpreg2;
 977              		.loc 1 960 0
 978 002a 25EA0404 		bic	r4, r5, r4
 979              	.LVL112:
 961:Libraries/STM32F10x_StdPeriph_Driver/src/stm32f10x_adc.c ****     /* Calculate the mask to set */
 962:Libraries/STM32F10x_StdPeriph_Driver/src/stm32f10x_adc.c ****     tmpreg2 = (uint32_t)ADC_SampleTime << (3 * ADC_Channel);
 980              		.loc 1 962 0
 981 002e B340     		lsls	r3, r3, r6
 982              	.LVL113:
 963:Libraries/STM32F10x_StdPeriph_Driver/src/stm32f10x_adc.c ****     /* Set the new channel sample time */
 964:Libraries/STM32F10x_StdPeriph_Driver/src/stm32f10x_adc.c ****     tmpreg1 |= tmpreg2;
 983              		.loc 1 964 0
 984 0030 2343     		orrs	r3, r3, r4
 985              	.LVL114:
 965:Libraries/STM32F10x_StdPeriph_Driver/src/stm32f10x_adc.c ****     /* Store the new register value */
 966:Libraries/STM32F10x_StdPeriph_Driver/src/stm32f10x_adc.c ****     ADCx->SMPR2 = tmpreg1;
 986              		.loc 1 966 0
 987 0032 0361     		str	r3, [r0, #16]
 988              	.LVL115:
 989              	.L73:
 967:Libraries/STM32F10x_StdPeriph_Driver/src/stm32f10x_adc.c ****   }
 968:Libraries/STM32F10x_StdPeriph_Driver/src/stm32f10x_adc.c ****   /* Rank configuration */
 969:Libraries/STM32F10x_StdPeriph_Driver/src/stm32f10x_adc.c ****   /* Get the old register value */
 970:Libraries/STM32F10x_StdPeriph_Driver/src/stm32f10x_adc.c ****   tmpreg1 = ADCx->JSQR;
 990              		.loc 1 970 0
 991 0034 836B     		ldr	r3, [r0, #56]
 992              	.LVL116:
 993 0036 0232     		adds	r2, r2, #2
 994              	.LVL117:
 971:Libraries/STM32F10x_StdPeriph_Driver/src/stm32f10x_adc.c ****   /* Get JL value: Number = JL+1 */
 972:Libraries/STM32F10x_StdPeriph_Driver/src/stm32f10x_adc.c ****   tmpreg3 =  (tmpreg1 & JSQR_JL_Set)>> 20;
 995              		.loc 1 972 0
 996 0038 C3F30154 		ubfx	r4, r3, #20, #2
 973:Libraries/STM32F10x_StdPeriph_Driver/src/stm32f10x_adc.c ****   /* Calculate the mask to clear: ((Rank-1)+(4-JL-1)) */
 974:Libraries/STM32F10x_StdPeriph_Driver/src/stm32f10x_adc.c ****   tmpreg2 = JSQR_JSQ_Set << (5 * (uint8_t)((Rank + 3) - (tmpreg3 + 1)));
 997              		.loc 1 974 0
 998 003c 121B     		subs	r2, r2, r4
 999 003e D2B2     		uxtb	r2, r2
 1000 0040 02EB8202 		add	r2, r2, r2, lsl #2
 1001              	.LVL118:
 1002 0044 1F24     		movs	r4, #31
 1003 0046 9440     		lsls	r4, r4, r2
 1004              	.LVL119:
 975:Libraries/STM32F10x_StdPeriph_Driver/src/stm32f10x_adc.c ****   /* Clear the old JSQx bits for the selected rank */
 976:Libraries/STM32F10x_StdPeriph_Driver/src/stm32f10x_adc.c ****   tmpreg1 &= ~tmpreg2;
 1005              		.loc 1 976 0
 1006 0048 23EA0403 		bic	r3, r3, r4
 1007              	.LVL120:
 977:Libraries/STM32F10x_StdPeriph_Driver/src/stm32f10x_adc.c ****   /* Calculate the mask to set: ((Rank-1)+(4-JL-1)) */
 978:Libraries/STM32F10x_StdPeriph_Driver/src/stm32f10x_adc.c ****   tmpreg2 = (uint32_t)ADC_Channel << (5 * (uint8_t)((Rank + 3) - (tmpreg3 + 1)));
 1008              		.loc 1 978 0
 1009 004c 9140     		lsls	r1, r1, r2
 1010              	.LVL121:
 979:Libraries/STM32F10x_StdPeriph_Driver/src/stm32f10x_adc.c ****   /* Set the JSQx bits for the selected rank */
 980:Libraries/STM32F10x_StdPeriph_Driver/src/stm32f10x_adc.c ****   tmpreg1 |= tmpreg2;
 1011              		.loc 1 980 0
 1012 004e 1943     		orrs	r1, r1, r3
 1013              	.LVL122:
 981:Libraries/STM32F10x_StdPeriph_Driver/src/stm32f10x_adc.c ****   /* Store the new register value */
 982:Libraries/STM32F10x_StdPeriph_Driver/src/stm32f10x_adc.c ****   ADCx->JSQR = tmpreg1;
 1014              		.loc 1 982 0
 1015 0050 8163     		str	r1, [r0, #56]
 1016 0052 70BD     		pop	{r4, r5, r6, pc}
 1017              		.cfi_endproc
 1018              	.LFE53:
 1020              		.section	.text.ADC_InjectedSequencerLengthConfig,"ax",%progbits
 1021              		.align	1
 1022              		.global	ADC_InjectedSequencerLengthConfig
 1023              		.thumb
 1024              		.thumb_func
 1026              	ADC_InjectedSequencerLengthConfig:
 1027              	.LFB54:
 983:Libraries/STM32F10x_StdPeriph_Driver/src/stm32f10x_adc.c **** }
 984:Libraries/STM32F10x_StdPeriph_Driver/src/stm32f10x_adc.c **** 
 985:Libraries/STM32F10x_StdPeriph_Driver/src/stm32f10x_adc.c **** /**
 986:Libraries/STM32F10x_StdPeriph_Driver/src/stm32f10x_adc.c ****   * @brief  Configures the sequencer length for injected channels
 987:Libraries/STM32F10x_StdPeriph_Driver/src/stm32f10x_adc.c ****   * @param  ADCx: where x can be 1, 2 or 3 to select the ADC peripheral.
 988:Libraries/STM32F10x_StdPeriph_Driver/src/stm32f10x_adc.c ****   * @param  Length: The sequencer length. 
 989:Libraries/STM32F10x_StdPeriph_Driver/src/stm32f10x_adc.c ****   *   This parameter must be a number between 1 to 4.
 990:Libraries/STM32F10x_StdPeriph_Driver/src/stm32f10x_adc.c ****   * @retval None
 991:Libraries/STM32F10x_StdPeriph_Driver/src/stm32f10x_adc.c ****   */
 992:Libraries/STM32F10x_StdPeriph_Driver/src/stm32f10x_adc.c **** void ADC_InjectedSequencerLengthConfig(ADC_TypeDef* ADCx, uint8_t Length)
 993:Libraries/STM32F10x_StdPeriph_Driver/src/stm32f10x_adc.c **** {
 1028              		.loc 1 993 0
 1029              		.cfi_startproc
 1030              		@ args = 0, pretend = 0, frame = 0
 1031              		@ frame_needed = 0, uses_anonymous_args = 0
 1032              		@ link register save eliminated.
 1033              	.LVL123:
 994:Libraries/STM32F10x_StdPeriph_Driver/src/stm32f10x_adc.c ****   uint32_t tmpreg1 = 0;
 995:Libraries/STM32F10x_StdPeriph_Driver/src/stm32f10x_adc.c ****   uint32_t tmpreg2 = 0;
 996:Libraries/STM32F10x_StdPeriph_Driver/src/stm32f10x_adc.c ****   /* Check the parameters */
 997:Libraries/STM32F10x_StdPeriph_Driver/src/stm32f10x_adc.c ****   assert_param(IS_ADC_ALL_PERIPH(ADCx));
 998:Libraries/STM32F10x_StdPeriph_Driver/src/stm32f10x_adc.c ****   assert_param(IS_ADC_INJECTED_LENGTH(Length));
 999:Libraries/STM32F10x_StdPeriph_Driver/src/stm32f10x_adc.c ****   
1000:Libraries/STM32F10x_StdPeriph_Driver/src/stm32f10x_adc.c ****   /* Get the old register value */
1001:Libraries/STM32F10x_StdPeriph_Driver/src/stm32f10x_adc.c ****   tmpreg1 = ADCx->JSQR;
 1034              		.loc 1 1001 0
 1035 0000 836B     		ldr	r3, [r0, #56]
 1036              	.LVL124:
1002:Libraries/STM32F10x_StdPeriph_Driver/src/stm32f10x_adc.c ****   /* Clear the old injected sequnence lenght JL bits */
1003:Libraries/STM32F10x_StdPeriph_Driver/src/stm32f10x_adc.c ****   tmpreg1 &= JSQR_JL_Reset;
1004:Libraries/STM32F10x_StdPeriph_Driver/src/stm32f10x_adc.c ****   /* Set the injected sequnence lenght JL bits */
1005:Libraries/STM32F10x_StdPeriph_Driver/src/stm32f10x_adc.c ****   tmpreg2 = Length - 1; 
 1037              		.loc 1 1005 0
 1038 0002 0139     		subs	r1, r1, #1
 1039              	.LVL125:
1003:Libraries/STM32F10x_StdPeriph_Driver/src/stm32f10x_adc.c ****   /* Set the injected sequnence lenght JL bits */
 1040              		.loc 1 1003 0
 1041 0004 23F44013 		bic	r3, r3, #3145728
 1042              	.LVL126:
1006:Libraries/STM32F10x_StdPeriph_Driver/src/stm32f10x_adc.c ****   tmpreg1 |= tmpreg2 << 20;
 1043              		.loc 1 1006 0
 1044 0008 43EA0153 		orr	r3, r3, r1, lsl #20
 1045              	.LVL127:
1007:Libraries/STM32F10x_StdPeriph_Driver/src/stm32f10x_adc.c ****   /* Store the new register value */
1008:Libraries/STM32F10x_StdPeriph_Driver/src/stm32f10x_adc.c ****   ADCx->JSQR = tmpreg1;
 1046              		.loc 1 1008 0
 1047 000c 8363     		str	r3, [r0, #56]
 1048 000e 7047     		bx	lr
 1049              		.cfi_endproc
 1050              	.LFE54:
 1052              		.section	.text.ADC_SetInjectedOffset,"ax",%progbits
 1053              		.align	1
 1054              		.global	ADC_SetInjectedOffset
 1055              		.thumb
 1056              		.thumb_func
 1058              	ADC_SetInjectedOffset:
 1059              	.LFB55:
1009:Libraries/STM32F10x_StdPeriph_Driver/src/stm32f10x_adc.c **** }
1010:Libraries/STM32F10x_StdPeriph_Driver/src/stm32f10x_adc.c **** 
1011:Libraries/STM32F10x_StdPeriph_Driver/src/stm32f10x_adc.c **** /**
1012:Libraries/STM32F10x_StdPeriph_Driver/src/stm32f10x_adc.c ****   * @brief  Set the injected channels conversion value offset
1013:Libraries/STM32F10x_StdPeriph_Driver/src/stm32f10x_adc.c ****   * @param  ADCx: where x can be 1, 2 or 3 to select the ADC peripheral.
1014:Libraries/STM32F10x_StdPeriph_Driver/src/stm32f10x_adc.c ****   * @param  ADC_InjectedChannel: the ADC injected channel to set its offset. 
1015:Libraries/STM32F10x_StdPeriph_Driver/src/stm32f10x_adc.c ****   *   This parameter can be one of the following values:
1016:Libraries/STM32F10x_StdPeriph_Driver/src/stm32f10x_adc.c ****   *     @arg ADC_InjectedChannel_1: Injected Channel1 selected
1017:Libraries/STM32F10x_StdPeriph_Driver/src/stm32f10x_adc.c ****   *     @arg ADC_InjectedChannel_2: Injected Channel2 selected
1018:Libraries/STM32F10x_StdPeriph_Driver/src/stm32f10x_adc.c ****   *     @arg ADC_InjectedChannel_3: Injected Channel3 selected
1019:Libraries/STM32F10x_StdPeriph_Driver/src/stm32f10x_adc.c ****   *     @arg ADC_InjectedChannel_4: Injected Channel4 selected
1020:Libraries/STM32F10x_StdPeriph_Driver/src/stm32f10x_adc.c ****   * @param  Offset: the offset value for the selected ADC injected channel
1021:Libraries/STM32F10x_StdPeriph_Driver/src/stm32f10x_adc.c ****   *   This parameter must be a 12bit value.
1022:Libraries/STM32F10x_StdPeriph_Driver/src/stm32f10x_adc.c ****   * @retval None
1023:Libraries/STM32F10x_StdPeriph_Driver/src/stm32f10x_adc.c ****   */
1024:Libraries/STM32F10x_StdPeriph_Driver/src/stm32f10x_adc.c **** void ADC_SetInjectedOffset(ADC_TypeDef* ADCx, uint8_t ADC_InjectedChannel, uint16_t Offset)
1025:Libraries/STM32F10x_StdPeriph_Driver/src/stm32f10x_adc.c **** {
 1060              		.loc 1 1025 0
 1061              		.cfi_startproc
 1062              		@ args = 0, pretend = 0, frame = 8
 1063              		@ frame_needed = 0, uses_anonymous_args = 0
 1064              		@ link register save eliminated.
 1065              	.LVL128:
 1066 0000 82B0     		sub	sp, sp, #8
 1067              		.cfi_def_cfa_offset 8
1026:Libraries/STM32F10x_StdPeriph_Driver/src/stm32f10x_adc.c ****   __IO uint32_t tmp = 0;
 1068              		.loc 1 1026 0
 1069 0002 0023     		movs	r3, #0
 1070 0004 0193     		str	r3, [sp, #4]
1027:Libraries/STM32F10x_StdPeriph_Driver/src/stm32f10x_adc.c ****   
1028:Libraries/STM32F10x_StdPeriph_Driver/src/stm32f10x_adc.c ****   /* Check the parameters */
1029:Libraries/STM32F10x_StdPeriph_Driver/src/stm32f10x_adc.c ****   assert_param(IS_ADC_ALL_PERIPH(ADCx));
1030:Libraries/STM32F10x_StdPeriph_Driver/src/stm32f10x_adc.c ****   assert_param(IS_ADC_INJECTED_CHANNEL(ADC_InjectedChannel));
1031:Libraries/STM32F10x_StdPeriph_Driver/src/stm32f10x_adc.c ****   assert_param(IS_ADC_OFFSET(Offset));  
1032:Libraries/STM32F10x_StdPeriph_Driver/src/stm32f10x_adc.c ****   
1033:Libraries/STM32F10x_StdPeriph_Driver/src/stm32f10x_adc.c ****   tmp = (uint32_t)ADCx;
 1071              		.loc 1 1033 0
 1072 0006 0190     		str	r0, [sp, #4]
1034:Libraries/STM32F10x_StdPeriph_Driver/src/stm32f10x_adc.c ****   tmp += ADC_InjectedChannel;
 1073              		.loc 1 1034 0
 1074 0008 019B     		ldr	r3, [sp, #4]
 1075 000a 1944     		add	r1, r1, r3
 1076              	.LVL129:
 1077 000c 0191     		str	r1, [sp, #4]
1035:Libraries/STM32F10x_StdPeriph_Driver/src/stm32f10x_adc.c ****   
1036:Libraries/STM32F10x_StdPeriph_Driver/src/stm32f10x_adc.c ****   /* Set the selected injected channel data offset */
1037:Libraries/STM32F10x_StdPeriph_Driver/src/stm32f10x_adc.c ****   *(__IO uint32_t *) tmp = (uint32_t)Offset;
 1078              		.loc 1 1037 0
 1079 000e 019B     		ldr	r3, [sp, #4]
 1080 0010 1A60     		str	r2, [r3]
1038:Libraries/STM32F10x_StdPeriph_Driver/src/stm32f10x_adc.c **** }
 1081              		.loc 1 1038 0
 1082 0012 02B0     		add	sp, sp, #8
 1083              		.cfi_def_cfa_offset 0
 1084              		@ sp needed
 1085 0014 7047     		bx	lr
 1086              		.cfi_endproc
 1087              	.LFE55:
 1089              		.section	.text.ADC_GetInjectedConversionValue,"ax",%progbits
 1090              		.align	1
 1091              		.global	ADC_GetInjectedConversionValue
 1092              		.thumb
 1093              		.thumb_func
 1095              	ADC_GetInjectedConversionValue:
 1096              	.LFB56:
1039:Libraries/STM32F10x_StdPeriph_Driver/src/stm32f10x_adc.c **** 
1040:Libraries/STM32F10x_StdPeriph_Driver/src/stm32f10x_adc.c **** /**
1041:Libraries/STM32F10x_StdPeriph_Driver/src/stm32f10x_adc.c ****   * @brief  Returns the ADC injected channel conversion result
1042:Libraries/STM32F10x_StdPeriph_Driver/src/stm32f10x_adc.c ****   * @param  ADCx: where x can be 1, 2 or 3 to select the ADC peripheral.
1043:Libraries/STM32F10x_StdPeriph_Driver/src/stm32f10x_adc.c ****   * @param  ADC_InjectedChannel: the converted ADC injected channel.
1044:Libraries/STM32F10x_StdPeriph_Driver/src/stm32f10x_adc.c ****   *   This parameter can be one of the following values:
1045:Libraries/STM32F10x_StdPeriph_Driver/src/stm32f10x_adc.c ****   *     @arg ADC_InjectedChannel_1: Injected Channel1 selected
1046:Libraries/STM32F10x_StdPeriph_Driver/src/stm32f10x_adc.c ****   *     @arg ADC_InjectedChannel_2: Injected Channel2 selected
1047:Libraries/STM32F10x_StdPeriph_Driver/src/stm32f10x_adc.c ****   *     @arg ADC_InjectedChannel_3: Injected Channel3 selected
1048:Libraries/STM32F10x_StdPeriph_Driver/src/stm32f10x_adc.c ****   *     @arg ADC_InjectedChannel_4: Injected Channel4 selected
1049:Libraries/STM32F10x_StdPeriph_Driver/src/stm32f10x_adc.c ****   * @retval The Data conversion value.
1050:Libraries/STM32F10x_StdPeriph_Driver/src/stm32f10x_adc.c ****   */
1051:Libraries/STM32F10x_StdPeriph_Driver/src/stm32f10x_adc.c **** uint16_t ADC_GetInjectedConversionValue(ADC_TypeDef* ADCx, uint8_t ADC_InjectedChannel)
1052:Libraries/STM32F10x_StdPeriph_Driver/src/stm32f10x_adc.c **** {
 1097              		.loc 1 1052 0
 1098              		.cfi_startproc
 1099              		@ args = 0, pretend = 0, frame = 8
 1100              		@ frame_needed = 0, uses_anonymous_args = 0
 1101              		@ link register save eliminated.
 1102              	.LVL130:
 1103 0000 82B0     		sub	sp, sp, #8
 1104              		.cfi_def_cfa_offset 8
1053:Libraries/STM32F10x_StdPeriph_Driver/src/stm32f10x_adc.c ****   __IO uint32_t tmp = 0;
 1105              		.loc 1 1053 0
 1106 0002 0023     		movs	r3, #0
 1107 0004 0193     		str	r3, [sp, #4]
1054:Libraries/STM32F10x_StdPeriph_Driver/src/stm32f10x_adc.c ****   
1055:Libraries/STM32F10x_StdPeriph_Driver/src/stm32f10x_adc.c ****   /* Check the parameters */
1056:Libraries/STM32F10x_StdPeriph_Driver/src/stm32f10x_adc.c ****   assert_param(IS_ADC_ALL_PERIPH(ADCx));
1057:Libraries/STM32F10x_StdPeriph_Driver/src/stm32f10x_adc.c ****   assert_param(IS_ADC_INJECTED_CHANNEL(ADC_InjectedChannel));
1058:Libraries/STM32F10x_StdPeriph_Driver/src/stm32f10x_adc.c **** 
1059:Libraries/STM32F10x_StdPeriph_Driver/src/stm32f10x_adc.c ****   tmp = (uint32_t)ADCx;
 1108              		.loc 1 1059 0
 1109 0006 0190     		str	r0, [sp, #4]
1060:Libraries/STM32F10x_StdPeriph_Driver/src/stm32f10x_adc.c ****   tmp += ADC_InjectedChannel + JDR_Offset;
 1110              		.loc 1 1060 0
 1111 0008 019B     		ldr	r3, [sp, #4]
 1112 000a 2833     		adds	r3, r3, #40
 1113 000c 1944     		add	r1, r1, r3
 1114              	.LVL131:
 1115 000e 0191     		str	r1, [sp, #4]
1061:Libraries/STM32F10x_StdPeriph_Driver/src/stm32f10x_adc.c ****   
1062:Libraries/STM32F10x_StdPeriph_Driver/src/stm32f10x_adc.c ****   /* Returns the selected injected channel conversion data value */
1063:Libraries/STM32F10x_StdPeriph_Driver/src/stm32f10x_adc.c ****   return (uint16_t) (*(__IO uint32_t*)  tmp);   
 1116              		.loc 1 1063 0
 1117 0010 019B     		ldr	r3, [sp, #4]
 1118 0012 1868     		ldr	r0, [r3]
 1119              	.LVL132:
1064:Libraries/STM32F10x_StdPeriph_Driver/src/stm32f10x_adc.c **** }
 1120              		.loc 1 1064 0
 1121 0014 80B2     		uxth	r0, r0
 1122 0016 02B0     		add	sp, sp, #8
 1123              		.cfi_def_cfa_offset 0
 1124              		@ sp needed
 1125 0018 7047     		bx	lr
 1126              		.cfi_endproc
 1127              	.LFE56:
 1129              		.section	.text.ADC_AnalogWatchdogCmd,"ax",%progbits
 1130              		.align	1
 1131              		.global	ADC_AnalogWatchdogCmd
 1132              		.thumb
 1133              		.thumb_func
 1135              	ADC_AnalogWatchdogCmd:
 1136              	.LFB57:
1065:Libraries/STM32F10x_StdPeriph_Driver/src/stm32f10x_adc.c **** 
1066:Libraries/STM32F10x_StdPeriph_Driver/src/stm32f10x_adc.c **** /**
1067:Libraries/STM32F10x_StdPeriph_Driver/src/stm32f10x_adc.c ****   * @brief  Enables or disables the analog watchdog on single/all regular
1068:Libraries/STM32F10x_StdPeriph_Driver/src/stm32f10x_adc.c ****   *   or injected channels
1069:Libraries/STM32F10x_StdPeriph_Driver/src/stm32f10x_adc.c ****   * @param  ADCx: where x can be 1, 2 or 3 to select the ADC peripheral.
1070:Libraries/STM32F10x_StdPeriph_Driver/src/stm32f10x_adc.c ****   * @param  ADC_AnalogWatchdog: the ADC analog watchdog configuration.
1071:Libraries/STM32F10x_StdPeriph_Driver/src/stm32f10x_adc.c ****   *   This parameter can be one of the following values:
1072:Libraries/STM32F10x_StdPeriph_Driver/src/stm32f10x_adc.c ****   *     @arg ADC_AnalogWatchdog_SingleRegEnable: Analog watchdog on a single regular channel
1073:Libraries/STM32F10x_StdPeriph_Driver/src/stm32f10x_adc.c ****   *     @arg ADC_AnalogWatchdog_SingleInjecEnable: Analog watchdog on a single injected channel
1074:Libraries/STM32F10x_StdPeriph_Driver/src/stm32f10x_adc.c ****   *     @arg ADC_AnalogWatchdog_SingleRegOrInjecEnable: Analog watchdog on a single regular or inje
1075:Libraries/STM32F10x_StdPeriph_Driver/src/stm32f10x_adc.c ****   *     @arg ADC_AnalogWatchdog_AllRegEnable: Analog watchdog on  all regular channel
1076:Libraries/STM32F10x_StdPeriph_Driver/src/stm32f10x_adc.c ****   *     @arg ADC_AnalogWatchdog_AllInjecEnable: Analog watchdog on  all injected channel
1077:Libraries/STM32F10x_StdPeriph_Driver/src/stm32f10x_adc.c ****   *     @arg ADC_AnalogWatchdog_AllRegAllInjecEnable: Analog watchdog on all regular and injected c
1078:Libraries/STM32F10x_StdPeriph_Driver/src/stm32f10x_adc.c ****   *     @arg ADC_AnalogWatchdog_None: No channel guarded by the analog watchdog
1079:Libraries/STM32F10x_StdPeriph_Driver/src/stm32f10x_adc.c ****   * @retval None	  
1080:Libraries/STM32F10x_StdPeriph_Driver/src/stm32f10x_adc.c ****   */
1081:Libraries/STM32F10x_StdPeriph_Driver/src/stm32f10x_adc.c **** void ADC_AnalogWatchdogCmd(ADC_TypeDef* ADCx, uint32_t ADC_AnalogWatchdog)
1082:Libraries/STM32F10x_StdPeriph_Driver/src/stm32f10x_adc.c **** {
 1137              		.loc 1 1082 0
 1138              		.cfi_startproc
 1139              		@ args = 0, pretend = 0, frame = 0
 1140              		@ frame_needed = 0, uses_anonymous_args = 0
 1141              		@ link register save eliminated.
 1142              	.LVL133:
1083:Libraries/STM32F10x_StdPeriph_Driver/src/stm32f10x_adc.c ****   uint32_t tmpreg = 0;
1084:Libraries/STM32F10x_StdPeriph_Driver/src/stm32f10x_adc.c ****   /* Check the parameters */
1085:Libraries/STM32F10x_StdPeriph_Driver/src/stm32f10x_adc.c ****   assert_param(IS_ADC_ALL_PERIPH(ADCx));
1086:Libraries/STM32F10x_StdPeriph_Driver/src/stm32f10x_adc.c ****   assert_param(IS_ADC_ANALOG_WATCHDOG(ADC_AnalogWatchdog));
1087:Libraries/STM32F10x_StdPeriph_Driver/src/stm32f10x_adc.c ****   /* Get the old register value */
1088:Libraries/STM32F10x_StdPeriph_Driver/src/stm32f10x_adc.c ****   tmpreg = ADCx->CR1;
 1143              		.loc 1 1088 0
 1144 0000 4368     		ldr	r3, [r0, #4]
 1145              	.LVL134:
1089:Libraries/STM32F10x_StdPeriph_Driver/src/stm32f10x_adc.c ****   /* Clear AWDEN, AWDENJ and AWDSGL bits */
1090:Libraries/STM32F10x_StdPeriph_Driver/src/stm32f10x_adc.c ****   tmpreg &= CR1_AWDMode_Reset;
 1146              		.loc 1 1090 0
 1147 0002 23F44003 		bic	r3, r3, #12582912
 1148              	.LVL135:
 1149 0006 23F40073 		bic	r3, r3, #512
 1150              	.LVL136:
1091:Libraries/STM32F10x_StdPeriph_Driver/src/stm32f10x_adc.c ****   /* Set the analog watchdog enable mode */
1092:Libraries/STM32F10x_StdPeriph_Driver/src/stm32f10x_adc.c ****   tmpreg |= ADC_AnalogWatchdog;
 1151              		.loc 1 1092 0
 1152 000a 1943     		orrs	r1, r1, r3
 1153              	.LVL137:
1093:Libraries/STM32F10x_StdPeriph_Driver/src/stm32f10x_adc.c ****   /* Store the new register value */
1094:Libraries/STM32F10x_StdPeriph_Driver/src/stm32f10x_adc.c ****   ADCx->CR1 = tmpreg;
 1154              		.loc 1 1094 0
 1155 000c 4160     		str	r1, [r0, #4]
 1156 000e 7047     		bx	lr
 1157              		.cfi_endproc
 1158              	.LFE57:
 1160              		.section	.text.ADC_AnalogWatchdogThresholdsConfig,"ax",%progbits
 1161              		.align	1
 1162              		.global	ADC_AnalogWatchdogThresholdsConfig
 1163              		.thumb
 1164              		.thumb_func
 1166              	ADC_AnalogWatchdogThresholdsConfig:
 1167              	.LFB58:
1095:Libraries/STM32F10x_StdPeriph_Driver/src/stm32f10x_adc.c **** }
1096:Libraries/STM32F10x_StdPeriph_Driver/src/stm32f10x_adc.c **** 
1097:Libraries/STM32F10x_StdPeriph_Driver/src/stm32f10x_adc.c **** /**
1098:Libraries/STM32F10x_StdPeriph_Driver/src/stm32f10x_adc.c ****   * @brief  Configures the high and low thresholds of the analog watchdog.
1099:Libraries/STM32F10x_StdPeriph_Driver/src/stm32f10x_adc.c ****   * @param  ADCx: where x can be 1, 2 or 3 to select the ADC peripheral.
1100:Libraries/STM32F10x_StdPeriph_Driver/src/stm32f10x_adc.c ****   * @param  HighThreshold: the ADC analog watchdog High threshold value.
1101:Libraries/STM32F10x_StdPeriph_Driver/src/stm32f10x_adc.c ****   *   This parameter must be a 12bit value.
1102:Libraries/STM32F10x_StdPeriph_Driver/src/stm32f10x_adc.c ****   * @param  LowThreshold: the ADC analog watchdog Low threshold value.
1103:Libraries/STM32F10x_StdPeriph_Driver/src/stm32f10x_adc.c ****   *   This parameter must be a 12bit value.
1104:Libraries/STM32F10x_StdPeriph_Driver/src/stm32f10x_adc.c ****   * @retval None
1105:Libraries/STM32F10x_StdPeriph_Driver/src/stm32f10x_adc.c ****   */
1106:Libraries/STM32F10x_StdPeriph_Driver/src/stm32f10x_adc.c **** void ADC_AnalogWatchdogThresholdsConfig(ADC_TypeDef* ADCx, uint16_t HighThreshold,
1107:Libraries/STM32F10x_StdPeriph_Driver/src/stm32f10x_adc.c ****                                         uint16_t LowThreshold)
1108:Libraries/STM32F10x_StdPeriph_Driver/src/stm32f10x_adc.c **** {
 1168              		.loc 1 1108 0
 1169              		.cfi_startproc
 1170              		@ args = 0, pretend = 0, frame = 0
 1171              		@ frame_needed = 0, uses_anonymous_args = 0
 1172              		@ link register save eliminated.
 1173              	.LVL138:
1109:Libraries/STM32F10x_StdPeriph_Driver/src/stm32f10x_adc.c ****   /* Check the parameters */
1110:Libraries/STM32F10x_StdPeriph_Driver/src/stm32f10x_adc.c ****   assert_param(IS_ADC_ALL_PERIPH(ADCx));
1111:Libraries/STM32F10x_StdPeriph_Driver/src/stm32f10x_adc.c ****   assert_param(IS_ADC_THRESHOLD(HighThreshold));
1112:Libraries/STM32F10x_StdPeriph_Driver/src/stm32f10x_adc.c ****   assert_param(IS_ADC_THRESHOLD(LowThreshold));
1113:Libraries/STM32F10x_StdPeriph_Driver/src/stm32f10x_adc.c ****   /* Set the ADCx high threshold */
1114:Libraries/STM32F10x_StdPeriph_Driver/src/stm32f10x_adc.c ****   ADCx->HTR = HighThreshold;
 1174              		.loc 1 1114 0
 1175 0000 4162     		str	r1, [r0, #36]
1115:Libraries/STM32F10x_StdPeriph_Driver/src/stm32f10x_adc.c ****   /* Set the ADCx low threshold */
1116:Libraries/STM32F10x_StdPeriph_Driver/src/stm32f10x_adc.c ****   ADCx->LTR = LowThreshold;
 1176              		.loc 1 1116 0
 1177 0002 8262     		str	r2, [r0, #40]
 1178 0004 7047     		bx	lr
 1179              		.cfi_endproc
 1180              	.LFE58:
 1182              		.section	.text.ADC_AnalogWatchdogSingleChannelConfig,"ax",%progbits
 1183              		.align	1
 1184              		.global	ADC_AnalogWatchdogSingleChannelConfig
 1185              		.thumb
 1186              		.thumb_func
 1188              	ADC_AnalogWatchdogSingleChannelConfig:
 1189              	.LFB59:
1117:Libraries/STM32F10x_StdPeriph_Driver/src/stm32f10x_adc.c **** }
1118:Libraries/STM32F10x_StdPeriph_Driver/src/stm32f10x_adc.c **** 
1119:Libraries/STM32F10x_StdPeriph_Driver/src/stm32f10x_adc.c **** /**
1120:Libraries/STM32F10x_StdPeriph_Driver/src/stm32f10x_adc.c ****   * @brief  Configures the analog watchdog guarded single channel
1121:Libraries/STM32F10x_StdPeriph_Driver/src/stm32f10x_adc.c ****   * @param  ADCx: where x can be 1, 2 or 3 to select the ADC peripheral.
1122:Libraries/STM32F10x_StdPeriph_Driver/src/stm32f10x_adc.c ****   * @param  ADC_Channel: the ADC channel to configure for the analog watchdog. 
1123:Libraries/STM32F10x_StdPeriph_Driver/src/stm32f10x_adc.c ****   *   This parameter can be one of the following values:
1124:Libraries/STM32F10x_StdPeriph_Driver/src/stm32f10x_adc.c ****   *     @arg ADC_Channel_0: ADC Channel0 selected
1125:Libraries/STM32F10x_StdPeriph_Driver/src/stm32f10x_adc.c ****   *     @arg ADC_Channel_1: ADC Channel1 selected
1126:Libraries/STM32F10x_StdPeriph_Driver/src/stm32f10x_adc.c ****   *     @arg ADC_Channel_2: ADC Channel2 selected
1127:Libraries/STM32F10x_StdPeriph_Driver/src/stm32f10x_adc.c ****   *     @arg ADC_Channel_3: ADC Channel3 selected
1128:Libraries/STM32F10x_StdPeriph_Driver/src/stm32f10x_adc.c ****   *     @arg ADC_Channel_4: ADC Channel4 selected
1129:Libraries/STM32F10x_StdPeriph_Driver/src/stm32f10x_adc.c ****   *     @arg ADC_Channel_5: ADC Channel5 selected
1130:Libraries/STM32F10x_StdPeriph_Driver/src/stm32f10x_adc.c ****   *     @arg ADC_Channel_6: ADC Channel6 selected
1131:Libraries/STM32F10x_StdPeriph_Driver/src/stm32f10x_adc.c ****   *     @arg ADC_Channel_7: ADC Channel7 selected
1132:Libraries/STM32F10x_StdPeriph_Driver/src/stm32f10x_adc.c ****   *     @arg ADC_Channel_8: ADC Channel8 selected
1133:Libraries/STM32F10x_StdPeriph_Driver/src/stm32f10x_adc.c ****   *     @arg ADC_Channel_9: ADC Channel9 selected
1134:Libraries/STM32F10x_StdPeriph_Driver/src/stm32f10x_adc.c ****   *     @arg ADC_Channel_10: ADC Channel10 selected
1135:Libraries/STM32F10x_StdPeriph_Driver/src/stm32f10x_adc.c ****   *     @arg ADC_Channel_11: ADC Channel11 selected
1136:Libraries/STM32F10x_StdPeriph_Driver/src/stm32f10x_adc.c ****   *     @arg ADC_Channel_12: ADC Channel12 selected
1137:Libraries/STM32F10x_StdPeriph_Driver/src/stm32f10x_adc.c ****   *     @arg ADC_Channel_13: ADC Channel13 selected
1138:Libraries/STM32F10x_StdPeriph_Driver/src/stm32f10x_adc.c ****   *     @arg ADC_Channel_14: ADC Channel14 selected
1139:Libraries/STM32F10x_StdPeriph_Driver/src/stm32f10x_adc.c ****   *     @arg ADC_Channel_15: ADC Channel15 selected
1140:Libraries/STM32F10x_StdPeriph_Driver/src/stm32f10x_adc.c ****   *     @arg ADC_Channel_16: ADC Channel16 selected
1141:Libraries/STM32F10x_StdPeriph_Driver/src/stm32f10x_adc.c ****   *     @arg ADC_Channel_17: ADC Channel17 selected
1142:Libraries/STM32F10x_StdPeriph_Driver/src/stm32f10x_adc.c ****   * @retval None
1143:Libraries/STM32F10x_StdPeriph_Driver/src/stm32f10x_adc.c ****   */
1144:Libraries/STM32F10x_StdPeriph_Driver/src/stm32f10x_adc.c **** void ADC_AnalogWatchdogSingleChannelConfig(ADC_TypeDef* ADCx, uint8_t ADC_Channel)
1145:Libraries/STM32F10x_StdPeriph_Driver/src/stm32f10x_adc.c **** {
 1190              		.loc 1 1145 0
 1191              		.cfi_startproc
 1192              		@ args = 0, pretend = 0, frame = 0
 1193              		@ frame_needed = 0, uses_anonymous_args = 0
 1194              		@ link register save eliminated.
 1195              	.LVL139:
1146:Libraries/STM32F10x_StdPeriph_Driver/src/stm32f10x_adc.c ****   uint32_t tmpreg = 0;
1147:Libraries/STM32F10x_StdPeriph_Driver/src/stm32f10x_adc.c ****   /* Check the parameters */
1148:Libraries/STM32F10x_StdPeriph_Driver/src/stm32f10x_adc.c ****   assert_param(IS_ADC_ALL_PERIPH(ADCx));
1149:Libraries/STM32F10x_StdPeriph_Driver/src/stm32f10x_adc.c ****   assert_param(IS_ADC_CHANNEL(ADC_Channel));
1150:Libraries/STM32F10x_StdPeriph_Driver/src/stm32f10x_adc.c ****   /* Get the old register value */
1151:Libraries/STM32F10x_StdPeriph_Driver/src/stm32f10x_adc.c ****   tmpreg = ADCx->CR1;
 1196              		.loc 1 1151 0
 1197 0000 4368     		ldr	r3, [r0, #4]
 1198              	.LVL140:
1152:Libraries/STM32F10x_StdPeriph_Driver/src/stm32f10x_adc.c ****   /* Clear the Analog watchdog channel select bits */
1153:Libraries/STM32F10x_StdPeriph_Driver/src/stm32f10x_adc.c ****   tmpreg &= CR1_AWDCH_Reset;
 1199              		.loc 1 1153 0
 1200 0002 23F01F03 		bic	r3, r3, #31
 1201              	.LVL141:
1154:Libraries/STM32F10x_StdPeriph_Driver/src/stm32f10x_adc.c ****   /* Set the Analog watchdog channel */
1155:Libraries/STM32F10x_StdPeriph_Driver/src/stm32f10x_adc.c ****   tmpreg |= ADC_Channel;
 1202              		.loc 1 1155 0
 1203 0006 1943     		orrs	r1, r1, r3
 1204              	.LVL142:
1156:Libraries/STM32F10x_StdPeriph_Driver/src/stm32f10x_adc.c ****   /* Store the new register value */
1157:Libraries/STM32F10x_StdPeriph_Driver/src/stm32f10x_adc.c ****   ADCx->CR1 = tmpreg;
 1205              		.loc 1 1157 0
 1206 0008 4160     		str	r1, [r0, #4]
 1207 000a 7047     		bx	lr
 1208              		.cfi_endproc
 1209              	.LFE59:
 1211              		.section	.text.ADC_TempSensorVrefintCmd,"ax",%progbits
 1212              		.align	1
 1213              		.global	ADC_TempSensorVrefintCmd
 1214              		.thumb
 1215              		.thumb_func
 1217              	ADC_TempSensorVrefintCmd:
 1218              	.LFB60:
1158:Libraries/STM32F10x_StdPeriph_Driver/src/stm32f10x_adc.c **** }
1159:Libraries/STM32F10x_StdPeriph_Driver/src/stm32f10x_adc.c **** 
1160:Libraries/STM32F10x_StdPeriph_Driver/src/stm32f10x_adc.c **** /**
1161:Libraries/STM32F10x_StdPeriph_Driver/src/stm32f10x_adc.c ****   * @brief  Enables or disables the temperature sensor and Vrefint channel.
1162:Libraries/STM32F10x_StdPeriph_Driver/src/stm32f10x_adc.c ****   * @param  NewState: new state of the temperature sensor.
1163:Libraries/STM32F10x_StdPeriph_Driver/src/stm32f10x_adc.c ****   *   This parameter can be: ENABLE or DISABLE.
1164:Libraries/STM32F10x_StdPeriph_Driver/src/stm32f10x_adc.c ****   * @retval None
1165:Libraries/STM32F10x_StdPeriph_Driver/src/stm32f10x_adc.c ****   */
1166:Libraries/STM32F10x_StdPeriph_Driver/src/stm32f10x_adc.c **** void ADC_TempSensorVrefintCmd(FunctionalState NewState)
1167:Libraries/STM32F10x_StdPeriph_Driver/src/stm32f10x_adc.c **** {
 1219              		.loc 1 1167 0
 1220              		.cfi_startproc
 1221              		@ args = 0, pretend = 0, frame = 0
 1222              		@ frame_needed = 0, uses_anonymous_args = 0
 1223              		@ link register save eliminated.
 1224              	.LVL143:
 1225 0000 044B     		ldr	r3, .L84
1168:Libraries/STM32F10x_StdPeriph_Driver/src/stm32f10x_adc.c ****   /* Check the parameters */
1169:Libraries/STM32F10x_StdPeriph_Driver/src/stm32f10x_adc.c ****   assert_param(IS_FUNCTIONAL_STATE(NewState));
1170:Libraries/STM32F10x_StdPeriph_Driver/src/stm32f10x_adc.c ****   if (NewState != DISABLE)
1171:Libraries/STM32F10x_StdPeriph_Driver/src/stm32f10x_adc.c ****   {
1172:Libraries/STM32F10x_StdPeriph_Driver/src/stm32f10x_adc.c ****     /* Enable the temperature sensor and Vrefint channel*/
1173:Libraries/STM32F10x_StdPeriph_Driver/src/stm32f10x_adc.c ****     ADC1->CR2 |= CR2_TSVREFE_Set;
 1226              		.loc 1 1173 0
 1227 0002 9A68     		ldr	r2, [r3, #8]
1170:Libraries/STM32F10x_StdPeriph_Driver/src/stm32f10x_adc.c ****   {
 1228              		.loc 1 1170 0
 1229 0004 10B1     		cbz	r0, .L81
 1230              		.loc 1 1173 0
 1231 0006 42F40002 		orr	r2, r2, #8388608
 1232 000a 01E0     		b	.L83
 1233              	.L81:
1174:Libraries/STM32F10x_StdPeriph_Driver/src/stm32f10x_adc.c ****   }
1175:Libraries/STM32F10x_StdPeriph_Driver/src/stm32f10x_adc.c ****   else
1176:Libraries/STM32F10x_StdPeriph_Driver/src/stm32f10x_adc.c ****   {
1177:Libraries/STM32F10x_StdPeriph_Driver/src/stm32f10x_adc.c ****     /* Disable the temperature sensor and Vrefint channel*/
1178:Libraries/STM32F10x_StdPeriph_Driver/src/stm32f10x_adc.c ****     ADC1->CR2 &= CR2_TSVREFE_Reset;
 1234              		.loc 1 1178 0
 1235 000c 22F40002 		bic	r2, r2, #8388608
 1236              	.L83:
 1237 0010 9A60     		str	r2, [r3, #8]
 1238 0012 7047     		bx	lr
 1239              	.L85:
 1240              		.align	2
 1241              	.L84:
 1242 0014 00240140 		.word	1073816576
 1243              		.cfi_endproc
 1244              	.LFE60:
 1246              		.section	.text.ADC_GetFlagStatus,"ax",%progbits
 1247              		.align	1
 1248              		.global	ADC_GetFlagStatus
 1249              		.thumb
 1250              		.thumb_func
 1252              	ADC_GetFlagStatus:
 1253              	.LFB61:
1179:Libraries/STM32F10x_StdPeriph_Driver/src/stm32f10x_adc.c ****   }
1180:Libraries/STM32F10x_StdPeriph_Driver/src/stm32f10x_adc.c **** }
1181:Libraries/STM32F10x_StdPeriph_Driver/src/stm32f10x_adc.c **** 
1182:Libraries/STM32F10x_StdPeriph_Driver/src/stm32f10x_adc.c **** /**
1183:Libraries/STM32F10x_StdPeriph_Driver/src/stm32f10x_adc.c ****   * @brief  Checks whether the specified ADC flag is set or not.
1184:Libraries/STM32F10x_StdPeriph_Driver/src/stm32f10x_adc.c ****   * @param  ADCx: where x can be 1, 2 or 3 to select the ADC peripheral.
1185:Libraries/STM32F10x_StdPeriph_Driver/src/stm32f10x_adc.c ****   * @param  ADC_FLAG: specifies the flag to check. 
1186:Libraries/STM32F10x_StdPeriph_Driver/src/stm32f10x_adc.c ****   *   This parameter can be one of the following values:
1187:Libraries/STM32F10x_StdPeriph_Driver/src/stm32f10x_adc.c ****   *     @arg ADC_FLAG_AWD: Analog watchdog flag
1188:Libraries/STM32F10x_StdPeriph_Driver/src/stm32f10x_adc.c ****   *     @arg ADC_FLAG_EOC: End of conversion flag
1189:Libraries/STM32F10x_StdPeriph_Driver/src/stm32f10x_adc.c ****   *     @arg ADC_FLAG_JEOC: End of injected group conversion flag
1190:Libraries/STM32F10x_StdPeriph_Driver/src/stm32f10x_adc.c ****   *     @arg ADC_FLAG_JSTRT: Start of injected group conversion flag
1191:Libraries/STM32F10x_StdPeriph_Driver/src/stm32f10x_adc.c ****   *     @arg ADC_FLAG_STRT: Start of regular group conversion flag
1192:Libraries/STM32F10x_StdPeriph_Driver/src/stm32f10x_adc.c ****   * @retval The new state of ADC_FLAG (SET or RESET).
1193:Libraries/STM32F10x_StdPeriph_Driver/src/stm32f10x_adc.c ****   */
1194:Libraries/STM32F10x_StdPeriph_Driver/src/stm32f10x_adc.c **** FlagStatus ADC_GetFlagStatus(ADC_TypeDef* ADCx, uint8_t ADC_FLAG)
1195:Libraries/STM32F10x_StdPeriph_Driver/src/stm32f10x_adc.c **** {
 1254              		.loc 1 1195 0
 1255              		.cfi_startproc
 1256              		@ args = 0, pretend = 0, frame = 0
 1257              		@ frame_needed = 0, uses_anonymous_args = 0
 1258              		@ link register save eliminated.
 1259              	.LVL144:
1196:Libraries/STM32F10x_StdPeriph_Driver/src/stm32f10x_adc.c ****   FlagStatus bitstatus = RESET;
1197:Libraries/STM32F10x_StdPeriph_Driver/src/stm32f10x_adc.c ****   /* Check the parameters */
1198:Libraries/STM32F10x_StdPeriph_Driver/src/stm32f10x_adc.c ****   assert_param(IS_ADC_ALL_PERIPH(ADCx));
1199:Libraries/STM32F10x_StdPeriph_Driver/src/stm32f10x_adc.c ****   assert_param(IS_ADC_GET_FLAG(ADC_FLAG));
1200:Libraries/STM32F10x_StdPeriph_Driver/src/stm32f10x_adc.c ****   /* Check the status of the specified ADC flag */
1201:Libraries/STM32F10x_StdPeriph_Driver/src/stm32f10x_adc.c ****   if ((ADCx->SR & ADC_FLAG) != (uint8_t)RESET)
 1260              		.loc 1 1201 0
 1261 0000 0368     		ldr	r3, [r0]
 1262              	.LVL145:
 1263 0002 1942     		tst	r1, r3
1202:Libraries/STM32F10x_StdPeriph_Driver/src/stm32f10x_adc.c ****   {
1203:Libraries/STM32F10x_StdPeriph_Driver/src/stm32f10x_adc.c ****     /* ADC_FLAG is set */
1204:Libraries/STM32F10x_StdPeriph_Driver/src/stm32f10x_adc.c ****     bitstatus = SET;
1205:Libraries/STM32F10x_StdPeriph_Driver/src/stm32f10x_adc.c ****   }
1206:Libraries/STM32F10x_StdPeriph_Driver/src/stm32f10x_adc.c ****   else
1207:Libraries/STM32F10x_StdPeriph_Driver/src/stm32f10x_adc.c ****   {
1208:Libraries/STM32F10x_StdPeriph_Driver/src/stm32f10x_adc.c ****     /* ADC_FLAG is reset */
1209:Libraries/STM32F10x_StdPeriph_Driver/src/stm32f10x_adc.c ****     bitstatus = RESET;
1210:Libraries/STM32F10x_StdPeriph_Driver/src/stm32f10x_adc.c ****   }
1211:Libraries/STM32F10x_StdPeriph_Driver/src/stm32f10x_adc.c ****   /* Return the ADC_FLAG status */
1212:Libraries/STM32F10x_StdPeriph_Driver/src/stm32f10x_adc.c ****   return  bitstatus;
1213:Libraries/STM32F10x_StdPeriph_Driver/src/stm32f10x_adc.c **** }
 1264              		.loc 1 1213 0
 1265 0004 14BF     		ite	ne
 1266 0006 0120     		movne	r0, #1
 1267              	.LVL146:
 1268 0008 0020     		moveq	r0, #0
 1269 000a 7047     		bx	lr
 1270              		.cfi_endproc
 1271              	.LFE61:
 1273              		.section	.text.ADC_ClearFlag,"ax",%progbits
 1274              		.align	1
 1275              		.global	ADC_ClearFlag
 1276              		.thumb
 1277              		.thumb_func
 1279              	ADC_ClearFlag:
 1280              	.LFB62:
1214:Libraries/STM32F10x_StdPeriph_Driver/src/stm32f10x_adc.c **** 
1215:Libraries/STM32F10x_StdPeriph_Driver/src/stm32f10x_adc.c **** /**
1216:Libraries/STM32F10x_StdPeriph_Driver/src/stm32f10x_adc.c ****   * @brief  Clears the ADCx's pending flags.
1217:Libraries/STM32F10x_StdPeriph_Driver/src/stm32f10x_adc.c ****   * @param  ADCx: where x can be 1, 2 or 3 to select the ADC peripheral.
1218:Libraries/STM32F10x_StdPeriph_Driver/src/stm32f10x_adc.c ****   * @param  ADC_FLAG: specifies the flag to clear. 
1219:Libraries/STM32F10x_StdPeriph_Driver/src/stm32f10x_adc.c ****   *   This parameter can be any combination of the following values:
1220:Libraries/STM32F10x_StdPeriph_Driver/src/stm32f10x_adc.c ****   *     @arg ADC_FLAG_AWD: Analog watchdog flag
1221:Libraries/STM32F10x_StdPeriph_Driver/src/stm32f10x_adc.c ****   *     @arg ADC_FLAG_EOC: End of conversion flag
1222:Libraries/STM32F10x_StdPeriph_Driver/src/stm32f10x_adc.c ****   *     @arg ADC_FLAG_JEOC: End of injected group conversion flag
1223:Libraries/STM32F10x_StdPeriph_Driver/src/stm32f10x_adc.c ****   *     @arg ADC_FLAG_JSTRT: Start of injected group conversion flag
1224:Libraries/STM32F10x_StdPeriph_Driver/src/stm32f10x_adc.c ****   *     @arg ADC_FLAG_STRT: Start of regular group conversion flag
1225:Libraries/STM32F10x_StdPeriph_Driver/src/stm32f10x_adc.c ****   * @retval None
1226:Libraries/STM32F10x_StdPeriph_Driver/src/stm32f10x_adc.c ****   */
1227:Libraries/STM32F10x_StdPeriph_Driver/src/stm32f10x_adc.c **** void ADC_ClearFlag(ADC_TypeDef* ADCx, uint8_t ADC_FLAG)
1228:Libraries/STM32F10x_StdPeriph_Driver/src/stm32f10x_adc.c **** {
 1281              		.loc 1 1228 0
 1282              		.cfi_startproc
 1283              		@ args = 0, pretend = 0, frame = 0
 1284              		@ frame_needed = 0, uses_anonymous_args = 0
 1285              		@ link register save eliminated.
 1286              	.LVL147:
1229:Libraries/STM32F10x_StdPeriph_Driver/src/stm32f10x_adc.c ****   /* Check the parameters */
1230:Libraries/STM32F10x_StdPeriph_Driver/src/stm32f10x_adc.c ****   assert_param(IS_ADC_ALL_PERIPH(ADCx));
1231:Libraries/STM32F10x_StdPeriph_Driver/src/stm32f10x_adc.c ****   assert_param(IS_ADC_CLEAR_FLAG(ADC_FLAG));
1232:Libraries/STM32F10x_StdPeriph_Driver/src/stm32f10x_adc.c ****   /* Clear the selected ADC flags */
1233:Libraries/STM32F10x_StdPeriph_Driver/src/stm32f10x_adc.c ****   ADCx->SR = ~(uint32_t)ADC_FLAG;
 1287              		.loc 1 1233 0
 1288 0000 C943     		mvns	r1, r1
 1289              	.LVL148:
 1290 0002 0160     		str	r1, [r0]
 1291 0004 7047     		bx	lr
 1292              		.cfi_endproc
 1293              	.LFE62:
 1295              		.section	.text.ADC_GetITStatus,"ax",%progbits
 1296              		.align	1
 1297              		.global	ADC_GetITStatus
 1298              		.thumb
 1299              		.thumb_func
 1301              	ADC_GetITStatus:
 1302              	.LFB63:
1234:Libraries/STM32F10x_StdPeriph_Driver/src/stm32f10x_adc.c **** }
1235:Libraries/STM32F10x_StdPeriph_Driver/src/stm32f10x_adc.c **** 
1236:Libraries/STM32F10x_StdPeriph_Driver/src/stm32f10x_adc.c **** /**
1237:Libraries/STM32F10x_StdPeriph_Driver/src/stm32f10x_adc.c ****   * @brief  Checks whether the specified ADC interrupt has occurred or not.
1238:Libraries/STM32F10x_StdPeriph_Driver/src/stm32f10x_adc.c ****   * @param  ADCx: where x can be 1, 2 or 3 to select the ADC peripheral.
1239:Libraries/STM32F10x_StdPeriph_Driver/src/stm32f10x_adc.c ****   * @param  ADC_IT: specifies the ADC interrupt source to check. 
1240:Libraries/STM32F10x_StdPeriph_Driver/src/stm32f10x_adc.c ****   *   This parameter can be one of the following values:
1241:Libraries/STM32F10x_StdPeriph_Driver/src/stm32f10x_adc.c ****   *     @arg ADC_IT_EOC: End of conversion interrupt mask
1242:Libraries/STM32F10x_StdPeriph_Driver/src/stm32f10x_adc.c ****   *     @arg ADC_IT_AWD: Analog watchdog interrupt mask
1243:Libraries/STM32F10x_StdPeriph_Driver/src/stm32f10x_adc.c ****   *     @arg ADC_IT_JEOC: End of injected conversion interrupt mask
1244:Libraries/STM32F10x_StdPeriph_Driver/src/stm32f10x_adc.c ****   * @retval The new state of ADC_IT (SET or RESET).
1245:Libraries/STM32F10x_StdPeriph_Driver/src/stm32f10x_adc.c ****   */
1246:Libraries/STM32F10x_StdPeriph_Driver/src/stm32f10x_adc.c **** ITStatus ADC_GetITStatus(ADC_TypeDef* ADCx, uint16_t ADC_IT)
1247:Libraries/STM32F10x_StdPeriph_Driver/src/stm32f10x_adc.c **** {
 1303              		.loc 1 1247 0
 1304              		.cfi_startproc
 1305              		@ args = 0, pretend = 0, frame = 0
 1306              		@ frame_needed = 0, uses_anonymous_args = 0
 1307              		@ link register save eliminated.
 1308              	.LVL149:
1248:Libraries/STM32F10x_StdPeriph_Driver/src/stm32f10x_adc.c ****   ITStatus bitstatus = RESET;
1249:Libraries/STM32F10x_StdPeriph_Driver/src/stm32f10x_adc.c ****   uint32_t itmask = 0, enablestatus = 0;
1250:Libraries/STM32F10x_StdPeriph_Driver/src/stm32f10x_adc.c ****   /* Check the parameters */
1251:Libraries/STM32F10x_StdPeriph_Driver/src/stm32f10x_adc.c ****   assert_param(IS_ADC_ALL_PERIPH(ADCx));
1252:Libraries/STM32F10x_StdPeriph_Driver/src/stm32f10x_adc.c ****   assert_param(IS_ADC_GET_IT(ADC_IT));
1253:Libraries/STM32F10x_StdPeriph_Driver/src/stm32f10x_adc.c ****   /* Get the ADC IT index */
1254:Libraries/STM32F10x_StdPeriph_Driver/src/stm32f10x_adc.c ****   itmask = ADC_IT >> 8;
1255:Libraries/STM32F10x_StdPeriph_Driver/src/stm32f10x_adc.c ****   /* Get the ADC_IT enable bit status */
1256:Libraries/STM32F10x_StdPeriph_Driver/src/stm32f10x_adc.c ****   enablestatus = (ADCx->CR1 & (uint8_t)ADC_IT) ;
 1309              		.loc 1 1256 0
 1310 0000 4368     		ldr	r3, [r0, #4]
 1311              	.LVL150:
1257:Libraries/STM32F10x_StdPeriph_Driver/src/stm32f10x_adc.c ****   /* Check the status of the specified ADC interrupt */
1258:Libraries/STM32F10x_StdPeriph_Driver/src/stm32f10x_adc.c ****   if (((ADCx->SR & itmask) != (uint32_t)RESET) && enablestatus)
 1312              		.loc 1 1258 0
 1313 0002 0068     		ldr	r0, [r0]
 1314              	.LVL151:
 1315 0004 10EA1120 		ands	r0, r0, r1, lsr #8
 1316 0008 04D0     		beq	.L89
1256:Libraries/STM32F10x_StdPeriph_Driver/src/stm32f10x_adc.c ****   /* Check the status of the specified ADC interrupt */
 1317              		.loc 1 1256 0 discriminator 1
 1318 000a C9B2     		uxtb	r1, r1
 1319              	.LVL152:
 1320              		.loc 1 1258 0 discriminator 1
 1321 000c 1942     		tst	r1, r3
1259:Libraries/STM32F10x_StdPeriph_Driver/src/stm32f10x_adc.c ****   {
1260:Libraries/STM32F10x_StdPeriph_Driver/src/stm32f10x_adc.c ****     /* ADC_IT is set */
1261:Libraries/STM32F10x_StdPeriph_Driver/src/stm32f10x_adc.c ****     bitstatus = SET;
 1322              		.loc 1 1261 0 discriminator 1
 1323 000e 14BF     		ite	ne
 1324 0010 0120     		movne	r0, #1
 1325 0012 0020     		moveq	r0, #0
 1326              	.LVL153:
 1327              	.L89:
1262:Libraries/STM32F10x_StdPeriph_Driver/src/stm32f10x_adc.c ****   }
1263:Libraries/STM32F10x_StdPeriph_Driver/src/stm32f10x_adc.c ****   else
1264:Libraries/STM32F10x_StdPeriph_Driver/src/stm32f10x_adc.c ****   {
1265:Libraries/STM32F10x_StdPeriph_Driver/src/stm32f10x_adc.c ****     /* ADC_IT is reset */
1266:Libraries/STM32F10x_StdPeriph_Driver/src/stm32f10x_adc.c ****     bitstatus = RESET;
1267:Libraries/STM32F10x_StdPeriph_Driver/src/stm32f10x_adc.c ****   }
1268:Libraries/STM32F10x_StdPeriph_Driver/src/stm32f10x_adc.c ****   /* Return the ADC_IT status */
1269:Libraries/STM32F10x_StdPeriph_Driver/src/stm32f10x_adc.c ****   return  bitstatus;
1270:Libraries/STM32F10x_StdPeriph_Driver/src/stm32f10x_adc.c **** }
 1328              		.loc 1 1270 0
 1329 0014 7047     		bx	lr
 1330              		.cfi_endproc
 1331              	.LFE63:
 1333              		.section	.text.ADC_ClearITPendingBit,"ax",%progbits
 1334              		.align	1
 1335              		.global	ADC_ClearITPendingBit
 1336              		.thumb
 1337              		.thumb_func
 1339              	ADC_ClearITPendingBit:
 1340              	.LFB64:
1271:Libraries/STM32F10x_StdPeriph_Driver/src/stm32f10x_adc.c **** 
1272:Libraries/STM32F10x_StdPeriph_Driver/src/stm32f10x_adc.c **** /**
1273:Libraries/STM32F10x_StdPeriph_Driver/src/stm32f10x_adc.c ****   * @brief  Clears the ADCxs interrupt pending bits.
1274:Libraries/STM32F10x_StdPeriph_Driver/src/stm32f10x_adc.c ****   * @param  ADCx: where x can be 1, 2 or 3 to select the ADC peripheral.
1275:Libraries/STM32F10x_StdPeriph_Driver/src/stm32f10x_adc.c ****   * @param  ADC_IT: specifies the ADC interrupt pending bit to clear.
1276:Libraries/STM32F10x_StdPeriph_Driver/src/stm32f10x_adc.c ****   *   This parameter can be any combination of the following values:
1277:Libraries/STM32F10x_StdPeriph_Driver/src/stm32f10x_adc.c ****   *     @arg ADC_IT_EOC: End of conversion interrupt mask
1278:Libraries/STM32F10x_StdPeriph_Driver/src/stm32f10x_adc.c ****   *     @arg ADC_IT_AWD: Analog watchdog interrupt mask
1279:Libraries/STM32F10x_StdPeriph_Driver/src/stm32f10x_adc.c ****   *     @arg ADC_IT_JEOC: End of injected conversion interrupt mask
1280:Libraries/STM32F10x_StdPeriph_Driver/src/stm32f10x_adc.c ****   * @retval None
1281:Libraries/STM32F10x_StdPeriph_Driver/src/stm32f10x_adc.c ****   */
1282:Libraries/STM32F10x_StdPeriph_Driver/src/stm32f10x_adc.c **** void ADC_ClearITPendingBit(ADC_TypeDef* ADCx, uint16_t ADC_IT)
1283:Libraries/STM32F10x_StdPeriph_Driver/src/stm32f10x_adc.c **** {
 1341              		.loc 1 1283 0
 1342              		.cfi_startproc
 1343              		@ args = 0, pretend = 0, frame = 0
 1344              		@ frame_needed = 0, uses_anonymous_args = 0
 1345              		@ link register save eliminated.
 1346              	.LVL154:
1284:Libraries/STM32F10x_StdPeriph_Driver/src/stm32f10x_adc.c ****   uint8_t itmask = 0;
1285:Libraries/STM32F10x_StdPeriph_Driver/src/stm32f10x_adc.c ****   /* Check the parameters */
1286:Libraries/STM32F10x_StdPeriph_Driver/src/stm32f10x_adc.c ****   assert_param(IS_ADC_ALL_PERIPH(ADCx));
1287:Libraries/STM32F10x_StdPeriph_Driver/src/stm32f10x_adc.c ****   assert_param(IS_ADC_IT(ADC_IT));
1288:Libraries/STM32F10x_StdPeriph_Driver/src/stm32f10x_adc.c ****   /* Get the ADC IT index */
1289:Libraries/STM32F10x_StdPeriph_Driver/src/stm32f10x_adc.c ****   itmask = (uint8_t)(ADC_IT >> 8);
1290:Libraries/STM32F10x_StdPeriph_Driver/src/stm32f10x_adc.c ****   /* Clear the selected ADC interrupt pending bits */
1291:Libraries/STM32F10x_StdPeriph_Driver/src/stm32f10x_adc.c ****   ADCx->SR = ~(uint32_t)itmask;
 1347              		.loc 1 1291 0
 1348 0000 6FEA1121 		mvn	r1, r1, lsr #8
 1349              	.LVL155:
 1350 0004 0160     		str	r1, [r0]
 1351 0006 7047     		bx	lr
 1352              		.cfi_endproc
 1353              	.LFE64:
 1355              		.text
 1356              	.Letext0:
 1357              		.file 2 "/usr/include/newlib/machine/_default_types.h"
 1358              		.file 3 "/usr/include/newlib/stdint.h"
 1359              		.file 4 "./Libraries/CMSIS/CM3/DeviceSupport/ST/STM32F10x/stm32f10x.h"
 1360              		.file 5 "./Libraries/STM32F10x_StdPeriph_Driver/inc/stm32f10x_adc.h"
 1361              		.file 6 "./Libraries/CMSIS/CM3/CoreSupport/core_cm3.h"